
KL25_UART.elf:     file format elf32-littlearm
KL25_UART.elf
architecture: arm, flags 0x00000012:
EXEC_P, HAS_SYMS
start address 0x00000801

Program Header:
    LOAD off    0x000000b4 vaddr 0x00000000 paddr 0x00000000 align 2**2
         filesz 0x000000c0 memsz 0x000000c0 flags r--
    LOAD off    0x00000174 vaddr 0x00000400 paddr 0x00000400 align 2**0
         filesz 0x00000010 memsz 0x00000010 flags r--
    LOAD off    0x00000188 vaddr 0x00000800 paddr 0x00000800 align 2**3
         filesz 0x00003900 memsz 0x00003900 flags r-x
    LOAD off    0x00003a88 vaddr 0x1ffff000 paddr 0x00004100 align 2**2
         filesz 0x00000008 memsz 0x00000808 flags rw-
private flags = 5000002: [Version5 EABI] [has entry point]

Sections:
Idx Name          Size      VMA       LMA       File off  Algn  Flags
  0 .interrupts   000000c0  00000000  00000000  000000b4  2**2  CONTENTS, ALLOC, LOAD, READONLY, DATA
  1 .flash_config 00000010  00000400  00000400  00000174  2**0  CONTENTS, ALLOC, LOAD, READONLY, DATA
  2 .text         000038f8  00000800  00000800  00000188  2**3  CONTENTS, ALLOC, LOAD, READONLY, CODE
  3 .ARM          00000008  000040f8  000040f8  00003a80  2**2  CONTENTS, ALLOC, LOAD, READONLY, DATA
  4 .data         00000008  1ffff000  00004100  00003a88  2**2  CONTENTS, ALLOC, LOAD, DATA
  5 .heap         00000400  1ffff008  00004108  00003a90  2**0  ALLOC
  6 .stack        00000400  1ffff408  00004508  00003a90  2**0  ALLOC
  7 .ARM.attributes 00000030  00000000  00000000  00003a90  2**0  CONTENTS, READONLY
  8 .debug_info   00002158  00000000  00000000  00003ac0  2**0  CONTENTS, READONLY, DEBUGGING
  9 .debug_abbrev 00000890  00000000  00000000  00005c18  2**0  CONTENTS, READONLY, DEBUGGING
 10 .debug_aranges 00000218  00000000  00000000  000064a8  2**3  CONTENTS, READONLY, DEBUGGING
 11 .debug_ranges 00000188  00000000  00000000  000066c0  2**0  CONTENTS, READONLY, DEBUGGING
 12 .debug_macro  0000a510  00000000  00000000  00006848  2**0  CONTENTS, READONLY, DEBUGGING
 13 .debug_line   000028a2  00000000  00000000  00010d58  2**0  CONTENTS, READONLY, DEBUGGING
 14 .debug_str    00034b03  00000000  00000000  000135fa  2**0  CONTENTS, READONLY, DEBUGGING
 15 .comment      00000070  00000000  00000000  000480fd  2**0  CONTENTS, READONLY
 16 .debug_frame  00000910  00000000  00000000  00048170  2**2  CONTENTS, READONLY, DEBUGGING
SYMBOL TABLE:
00000000 l    d  .interrupts	00000000 .interrupts
00000400 l    d  .flash_config	00000000 .flash_config
00000800 l    d  .text	00000000 .text
000040f8 l    d  .ARM	00000000 .ARM
1ffff000 l    d  .data	00000000 .data
1ffff008 l    d  .heap	00000000 .heap
1ffff408 l    d  .stack	00000000 .stack
00000000 l    d  .ARM.attributes	00000000 .ARM.attributes
00000000 l    d  .debug_info	00000000 .debug_info
00000000 l    d  .debug_abbrev	00000000 .debug_abbrev
00000000 l    d  .debug_aranges	00000000 .debug_aranges
00000000 l    d  .debug_ranges	00000000 .debug_ranges
00000000 l    d  .debug_macro	00000000 .debug_macro
00000000 l    d  .debug_line	00000000 .debug_line
00000000 l    d  .debug_str	00000000 .debug_str
00000000 l    d  .comment	00000000 .comment
00000000 l    d  .debug_frame	00000000 .debug_frame
00000000 l    df *ABS*	00000000 ./03_MCU/startup_MKL25Z4.o
00000000 l    df *ABS*	00000000 _udivsi3.o
00000850 l       .text	00000000 .udivsi3_skip_div0_test
00000000 l    df *ABS*	00000000 _divsi3.o
000008ec l       .text	00000000 .divsi3_skip_div0_test
00000000 l    df *ABS*	00000000 _dvmd_tls.o
00000000 l    df *ABS*	00000000 _arm_cmpdf2.o
00000000 l    df *ABS*	00000000 _aeabi_uldivmod.o
00000000 l    df *ABS*	00000000 libgcc2.c
00000000 l    df *ABS*	00000000 libgcc2.c
00000000 l    df *ABS*	00000000 bpabi.c
00000000 l    df *ABS*	00000000 eqdf2.c
00000000 l    df *ABS*	00000000 gedf2.c
00000000 l    df *ABS*	00000000 ledf2.c
00000000 l    df *ABS*	00000000 muldf3.c
00000000 l    df *ABS*	00000000 subdf3.c
00000000 l    df *ABS*	00000000 fixdfsi.c
00000000 l    df *ABS*	00000000 floatunsidf.c
00000000 l    df *ABS*	00000000 _clzsi2.o
00000000 l    df *ABS*	00000000 libgcc2.c
00000000 l    df *ABS*	00000000 libgcc2.c
00000000 l    df *ABS*	00000000 libgcc2.c
00000000 l    df *ABS*	00000000 isr.c
00000000 l    df *ABS*	00000000 main.c
00000000 l    df *ABS*	00000000 printf.c
000023cc l     F .text	00000050 printk_putc
000027b8 l     F .text	000000fe printk_mknumstr
000028b8 l     F .text	00000036 printk_pad_zero
000028f0 l     F .text	00000036 printk_pad_space
00000000 l    df *ABS*	00000000 light.c
00000000 l    df *ABS*	00000000 uart.c
00003450 l     F .text	0000002c NVIC_EnableIRQ
000040c8 l     O .text	00000008 UART_ARR
1ffff000 l     O .data	00000003 table_irq_uart
00000000 l    df *ABS*	00000000 gpio.c
00000000 l    df *ABS*	00000000 system_MKL25Z4.c
00000000 l    df *ABS*	00000000 memset.c
00000000 l    df *ABS*	00000000 strlen.c
00000000 l    df *ABS*	00000000 
00000400 l       *ABS*	00000000 STACK_SIZE
1ffff408 l       .heap	00000000 __HeapLimit
00000400 l       *ABS*	00000000 HEAP_SIZE
00004100 l       .ARM	00000000 __DATA_ROM
20002c00 l       *ABS*	00000000 __StackLimit
1ffff008 g       .heap	00000000 __HeapBase
000009ec g     F .text	00000012 .hidden __aeabi_dcmple
00000b28 g     F .text	00000032 .hidden __gnu_uldivmod_helper
00000b5c g     F .text	00000094 .hidden __eqdf2
00001ac0 g     F .text	000003b8 .hidden __divdi3
1ffff000 g       .data	00000000 __data_start__
00000844  w    F .text	00000004 I2C0_IRQHandler
00000844  w    F .text	00000004 HardFault_Handler
00000844  w    F .text	00000004 SysTick_Handler
00003408 g     F .text	0000002a light_init
00000844  w    F .text	00000004 PendSV_Handler
00000844  w    F .text	00000004 NMI_Handler
00004100 g       .ARM	00000000 __exidx_end
00000844  w    F .text	00000004 I2C1_IRQHandler
0000223c g     F .text	00000040 UART1_IRQHandler
00000bf0 g     F .text	000000fc .hidden __gtdf2
00004100 g       .ARM	00000000 __etext
00000844  w    F .text	00000004 DMA2_IRQHandler
0000390c g     F .text	0000007c uart_enable_re_int
00000844  w    F .text	00000004 TPM0_IRQHandler
000009bc g     F .text	00000010 .hidden __aeabi_cdcmple
00000844  w    F .text	00000004 LLWU_IRQHandler
00000844  w    F .text	00000004 TSI0_IRQHandler
000021fc g     F .text	00000040 UART0_IRQHandler
000009ac g     F .text	00000020 .hidden __aeabi_cdrcmple
00000cec g     F .text	000000fc .hidden __ltdf2
00004100 g       .data	00000000 __DTOR_END__
00000a28 g     F .text	0000003e .hidden __aeabi_uldivmod
1ffff004 g     O .data	00000004 SystemCoreClock
00000844  w    F .text	00000004 ADC0_IRQHandler
00000844  w    F .text	00000004 Reserved39_IRQHandler
0000084c g     F .text	00000088 .hidden __udivsi3
1ffff008 g       .data	00000000 __START_BSS
00000a68 g     F .text	00000040 .hidden __fixunsdfsi
1ffff008 g       .data	00000000 __bss_start__
000019d8 g     F .text	00000068 .hidden __aeabi_ui2d
00000844  w    F .text	00000004 SPI1_IRQHandler
00000844  w    F .text	00000004 DefaultISR
000009d8 g     F .text	00000012 .hidden __aeabi_dcmplt
00000844  w    F .text	00000004 PORTD_IRQHandler
000040f8 g       .ARM	00000000 __exidx_start
00000de8 g     F .text	00000520 .hidden __aeabi_dmul
00001a7c g     F .text	00000044 .hidden __aeabi_lmul
00001e78 g     F .text	00000382 .hidden __udivdi3
00002420 g     F .text	00000398 printk_mkfloatstr
00000844  w    F .text	00000004 TPM2_IRQHandler
00000aa8 g     F .text	00000048 .hidden __aeabi_d2ulz
00000844  w    F .text	00000004 RTC_IRQHandler
000040d0 g     O .text	00000014 PORT_ARR
00000800  w    F .text	00000044 Reset_Handler
00003988 g     F .text	000000e8 uart_get_re_int
00000cec g     F .text	000000fc .hidden __ledf2
000033c0 g     F .text	00000048 myprintf
00000844  w    F .text	00000004 RTC_Seconds_IRQHandler
000008e8 g     F .text	00000000 .hidden __aeabi_idiv
00000844  w    F .text	00000004 MCG_IRQHandler
000037c0 g     F .text	00000082 uart_send_string
0000227c g     F .text	00000040 UART2_IRQHandler
1ffff008 g       .data	00000000 __data_end__
00004100 g       .data	00000000 __CTOR_LIST__
00000a00 g     F .text	00000012 .hidden __aeabi_dcmpgt
00001a40 g     F .text	0000003c .hidden __clzsi2
0000347c g     F .text	0000029c uart_init
1ffff008 g       .data	00000000 __bss_end__
00000844  w    F .text	00000004 Reserved20_IRQHandler
00000a14 g     F .text	00000012 .hidden __aeabi_dcmpge
00001308 g     F .text	00000668 .hidden __aeabi_dsub
000023ac g     F .text	0000001e out_char
00002928 g     F .text	00000a94 printk
000009a8  w    F .text	00000002 .hidden __aeabi_ldiv0
00000844  w    F .text	00000004 USB0_IRQHandler
00003844 g     F .text	000000c8 uart_re1
00003434 g     F .text	0000001c light_change
00003e24 g     F .text	0000009a memset
00000000 g       .interrupts	000000c0 __isr_vector
000022bc g     F .text	000000f0 main
00000844  w    F .text	00000004 PIT_IRQHandler
0000084c g     F .text	00000000 .hidden __aeabi_uidiv
00000844  w    F .text	00000004 SVC_Handler
1ffff000 g       .data	00000000 __DATA_RAM
00003c50 g     F .text	00000034 gpio_get_port_pin
1ffff008 g       .heap	00000000 __end__
000008e8 g     F .text	000000ac .hidden __divsi3
00004100 g       .data	00000000 __CTOR_END__
00000844  w    F .text	00000004 DMA3_IRQHandler
00004100 g       .data	00000000 __DTOR_LIST__
1ffff008 g       .data	00000000 __END_BSS
00003c84 g     F .text	000001a0 SystemInit
00000844  w    F .text	00000004 DMA0_IRQHandler
00000b5c g     F .text	00000094 .hidden __nedf2
00000aa8 g     F .text	00000048 .hidden __fixunsdfdi
00000844  w    F .text	00000004 DAC0_IRQHandler
20003000 g       *ABS*	00000000 __StackTop
1ffff000 g       .data	00000000 _mtb_end
00004108 g       .ARM	00000000 __DATA_END
00000844  w    F .text	00000004 Reserved45_IRQHandler
00000a68 g     F .text	00000040 .hidden __aeabi_d2uiz
00000844  w    F .text	00000004 TPM1_IRQHandler
000008d4 g     F .text	00000012 .hidden __aeabi_uidivmod
000009cc g     F .text	0000000c .hidden __aeabi_dcmpeq
00000844  w    F .text	00000004 LVD_LVW_IRQHandler
00000844  w    F .text	00000004 SPI0_IRQHandler
00000844  w    F .text	00000004 PORTA_IRQHandler
00000000 g       .interrupts	00000000 __VECTOR_TABLE
00000844  w    F .text	00000004 FTFA_IRQHandler
000040e4 g     O .text	00000014 GPIO_ARR
00001970 g     F .text	00000068 .hidden __aeabi_d2iz
1ffff000 g       .data	00000000 _mtb_start
000009a8  w    F .text	00000002 .hidden __aeabi_idiv0
00000844  w    F .text	00000004 LPTMR0_IRQHandler
00001a7c g     F .text	00000044 .hidden __muldi3
00003ec0 g     F .text	0000000e strlen
000009bc g     F .text	00000010 .hidden __aeabi_cdcmpeq
00000bf0 g     F .text	000000fc .hidden __gedf2
00003718 g     F .text	000000a8 uart_send1
00003a70 g     F .text	00000022 uart_is_uartNo
00003b7c g     F .text	00000080 gpio_set
00000af0 g     F .text	00000036 .hidden __gnu_ldivmod_helper
00003bfc g     F .text	00000054 gpio_reverse
00003a94 g     F .text	000000e8 gpio_init
00000844  w    F .text	00000004 CMP0_IRQHandler
00000994 g     F .text	00000012 .hidden __aeabi_idivmod
00000844  w    F .text	00000004 DMA1_IRQHandler



Disassembly of section .text:

00000800 <Reset_Handler>:
Reset_Handler():
E:\work-201605\2012-2016 M0+1-20160318\M0+2-20160325\06-User\SD-KL-CD(V6.5)-20160501\02-Software\KL25-program\ch06-UART-20160501\KL25_UART\Debug/../03_MCU/startup_MKL25Z4.S:117
    .align 2
    .globl   Reset_Handler
    .weak    Reset_Handler
    .type    Reset_Handler, %function
Reset_Handler:
    cpsid   i               /* 屏蔽中断 */
     800:	b672      	cpsid	i
E:\work-201605\2012-2016 M0+1-20160318\M0+2-20160325\06-User\SD-KL-CD(V6.5)-20160501\02-Software\KL25-program\ch06-UART-20160501\KL25_UART\Debug/../03_MCU/startup_MKL25Z4.S:119
#ifndef __NO_SYSTEM_INIT
    bl SystemInit           /* 跳转到系统初始化函数，在system_MKL25Z4.c中 */
     802:	f003 fa3f 	bl	3c84 <SystemInit>
E:\work-201605\2012-2016 M0+1-20160318\M0+2-20160325\06-User\SD-KL-CD(V6.5)-20160501\02-Software\KL25-program\ch06-UART-20160501\KL25_UART\Debug/../03_MCU/startup_MKL25Z4.S:121
#endif
    cpsie   i               /* 解除屏蔽中断 */
     806:	b662      	cpsie	i
E:\work-201605\2012-2016 M0+1-20160318\M0+2-20160325\06-User\SD-KL-CD(V6.5)-20160501\02-Software\KL25-program\ch06-UART-20160501\KL25_UART\Debug/../03_MCU/startup_MKL25Z4.S:127

/*     把数据从ROM复制到RAM中。需要在连接文件中定义如下的标志。
 *
 *      __etext: 代码段结束标志, 比如： begin of data sections to copy from.
 *      __data_start__/__data_end__: 数据需要复制到的RAM地址范围。边界必须4字节对齐  */
    ldr    r1, =__etext
     808:	4909      	ldr	r1, [pc, #36]	; (830 <Reset_Handler+0x30>)
E:\work-201605\2012-2016 M0+1-20160318\M0+2-20160325\06-User\SD-KL-CD(V6.5)-20160501\02-Software\KL25-program\ch06-UART-20160501\KL25_UART\Debug/../03_MCU/startup_MKL25Z4.S:128
    ldr    r2, =__data_start__
     80a:	4a0a      	ldr	r2, [pc, #40]	; (834 <Reset_Handler+0x34>)
E:\work-201605\2012-2016 M0+1-20160318\M0+2-20160325\06-User\SD-KL-CD(V6.5)-20160501\02-Software\KL25-program\ch06-UART-20160501\KL25_UART\Debug/../03_MCU/startup_MKL25Z4.S:129
    ldr    r3, =__data_end__
     80c:	4b0a      	ldr	r3, [pc, #40]	; (838 <Reset_Handler+0x38>)
E:\work-201605\2012-2016 M0+1-20160318\M0+2-20160325\06-User\SD-KL-CD(V6.5)-20160501\02-Software\KL25-program\ch06-UART-20160501\KL25_UART\Debug/../03_MCU/startup_MKL25Z4.S:131

    subs    r3, r2
     80e:	1a9b      	subs	r3, r3, r2
E:\work-201605\2012-2016 M0+1-20160318\M0+2-20160325\06-User\SD-KL-CD(V6.5)-20160501\02-Software\KL25-program\ch06-UART-20160501\KL25_UART\Debug/../03_MCU/startup_MKL25Z4.S:132
    ble     .LC0
     810:	dd03      	ble.n	81a <Reset_Handler+0x1a>
E:\work-201605\2012-2016 M0+1-20160318\M0+2-20160325\06-User\SD-KL-CD(V6.5)-20160501\02-Software\KL25-program\ch06-UART-20160501\KL25_UART\Debug/../03_MCU/startup_MKL25Z4.S:135

.LC1:
    subs    r3, 4
     812:	3b04      	subs	r3, #4
E:\work-201605\2012-2016 M0+1-20160318\M0+2-20160325\06-User\SD-KL-CD(V6.5)-20160501\02-Software\KL25-program\ch06-UART-20160501\KL25_UART\Debug/../03_MCU/startup_MKL25Z4.S:136
    ldr    r0, [r1,r3]
     814:	58c8      	ldr	r0, [r1, r3]
E:\work-201605\2012-2016 M0+1-20160318\M0+2-20160325\06-User\SD-KL-CD(V6.5)-20160501\02-Software\KL25-program\ch06-UART-20160501\KL25_UART\Debug/../03_MCU/startup_MKL25Z4.S:137
    str    r0, [r2,r3]
     816:	50d0      	str	r0, [r2, r3]
E:\work-201605\2012-2016 M0+1-20160318\M0+2-20160325\06-User\SD-KL-CD(V6.5)-20160501\02-Software\KL25-program\ch06-UART-20160501\KL25_UART\Debug/../03_MCU/startup_MKL25Z4.S:138
    bgt    .LC1
     818:	dcfb      	bgt.n	812 <Reset_Handler+0x12>
E:\work-201605\2012-2016 M0+1-20160318\M0+2-20160325\06-User\SD-KL-CD(V6.5)-20160501\02-Software\KL25-program\ch06-UART-20160501\KL25_UART\Debug/../03_MCU/startup_MKL25Z4.S:150
 *
 *     清理BSS段需要在连接文件中定义如下的标志
 *      __bss_start__: bss段的起始标志，需要对其到4字节
 *      __bss_end__: bss段的结束标志. 需要对其到4字节
 */
    ldr r1, =__bss_start__
     81a:	4908      	ldr	r1, [pc, #32]	; (83c <Reset_Handler+0x3c>)
E:\work-201605\2012-2016 M0+1-20160318\M0+2-20160325\06-User\SD-KL-CD(V6.5)-20160501\02-Software\KL25-program\ch06-UART-20160501\KL25_UART\Debug/../03_MCU/startup_MKL25Z4.S:151
    ldr r2, =__bss_end__
     81c:	4a08      	ldr	r2, [pc, #32]	; (840 <Reset_Handler+0x40>)
E:\work-201605\2012-2016 M0+1-20160318\M0+2-20160325\06-User\SD-KL-CD(V6.5)-20160501\02-Software\KL25-program\ch06-UART-20160501\KL25_UART\Debug/../03_MCU/startup_MKL25Z4.S:153

    subs    r2, r1
     81e:	1a52      	subs	r2, r2, r1
E:\work-201605\2012-2016 M0+1-20160318\M0+2-20160325\06-User\SD-KL-CD(V6.5)-20160501\02-Software\KL25-program\ch06-UART-20160501\KL25_UART\Debug/../03_MCU/startup_MKL25Z4.S:154
    ble .LC3
     820:	dd03      	ble.n	82a <Reset_Handler+0x2a>
E:\work-201605\2012-2016 M0+1-20160318\M0+2-20160325\06-User\SD-KL-CD(V6.5)-20160501\02-Software\KL25-program\ch06-UART-20160501\KL25_UART\Debug/../03_MCU/startup_MKL25Z4.S:156

    movs    r0, 0
     822:	2000      	movs	r0, #0
E:\work-201605\2012-2016 M0+1-20160318\M0+2-20160325\06-User\SD-KL-CD(V6.5)-20160501\02-Software\KL25-program\ch06-UART-20160501\KL25_UART\Debug/../03_MCU/startup_MKL25Z4.S:158
.LC2:
    str r0, [r1, r2]
     824:	5088      	str	r0, [r1, r2]
E:\work-201605\2012-2016 M0+1-20160318\M0+2-20160325\06-User\SD-KL-CD(V6.5)-20160501\02-Software\KL25-program\ch06-UART-20160501\KL25_UART\Debug/../03_MCU/startup_MKL25Z4.S:159
    subs    r2, 4
     826:	3a04      	subs	r2, #4
E:\work-201605\2012-2016 M0+1-20160318\M0+2-20160325\06-User\SD-KL-CD(V6.5)-20160501\02-Software\KL25-program\ch06-UART-20160501\KL25_UART\Debug/../03_MCU/startup_MKL25Z4.S:160
    bge .LC2
     828:	dafc      	bge.n	824 <Reset_Handler+0x24>
E:\work-201605\2012-2016 M0+1-20160318\M0+2-20160325\06-User\SD-KL-CD(V6.5)-20160501\02-Software\KL25-program\ch06-UART-20160501\KL25_UART\Debug/../03_MCU/startup_MKL25Z4.S:166
.LC3:
#endif
#ifndef __START
#define __START main
#endif
    bl    __START
     82a:	f001 fd47 	bl	22bc <main>
     82e:	0000      	.short	0x0000
E:\work-201605\2012-2016 M0+1-20160318\M0+2-20160325\06-User\SD-KL-CD(V6.5)-20160501\02-Software\KL25-program\ch06-UART-20160501\KL25_UART\Debug/../03_MCU/startup_MKL25Z4.S:127

/*     把数据从ROM复制到RAM中。需要在连接文件中定义如下的标志。
 *
 *      __etext: 代码段结束标志, 比如： begin of data sections to copy from.
 *      __data_start__/__data_end__: 数据需要复制到的RAM地址范围。边界必须4字节对齐  */
    ldr    r1, =__etext
     830:	00004100 	.word	0x00004100
E:\work-201605\2012-2016 M0+1-20160318\M0+2-20160325\06-User\SD-KL-CD(V6.5)-20160501\02-Software\KL25-program\ch06-UART-20160501\KL25_UART\Debug/../03_MCU/startup_MKL25Z4.S:128
    ldr    r2, =__data_start__
     834:	1ffff000 	.word	0x1ffff000
E:\work-201605\2012-2016 M0+1-20160318\M0+2-20160325\06-User\SD-KL-CD(V6.5)-20160501\02-Software\KL25-program\ch06-UART-20160501\KL25_UART\Debug/../03_MCU/startup_MKL25Z4.S:129
    ldr    r3, =__data_end__
     838:	1ffff008 	.word	0x1ffff008
E:\work-201605\2012-2016 M0+1-20160318\M0+2-20160325\06-User\SD-KL-CD(V6.5)-20160501\02-Software\KL25-program\ch06-UART-20160501\KL25_UART\Debug/../03_MCU/startup_MKL25Z4.S:150
 *
 *     清理BSS段需要在连接文件中定义如下的标志
 *      __bss_start__: bss段的起始标志，需要对其到4字节
 *      __bss_end__: bss段的结束标志. 需要对其到4字节
 */
    ldr r1, =__bss_start__
     83c:	1ffff008 	.word	0x1ffff008
E:\work-201605\2012-2016 M0+1-20160318\M0+2-20160325\06-User\SD-KL-CD(V6.5)-20160501\02-Software\KL25-program\ch06-UART-20160501\KL25_UART\Debug/../03_MCU/startup_MKL25Z4.S:151
    ldr r2, =__bss_end__
     840:	1ffff008 	.word	0x1ffff008

00000844 <ADC0_IRQHandler>:
I2C0_IRQHandler():
E:\work-201605\2012-2016 M0+1-20160318\M0+2-20160325\06-User\SD-KL-CD(V6.5)-20160501\02-Software\KL25-program\ch06-UART-20160501\KL25_UART\Debug/../03_MCU/startup_MKL25Z4.S:175
    .align	1
    .thumb_func
    .weak DefaultISR
    .type DefaultISR, %function
DefaultISR:
    ldr	r0, =DefaultISR
     844:	4800      	ldr	r0, [pc, #0]	; (848 <ADC0_IRQHandler+0x4>)
E:\work-201605\2012-2016 M0+1-20160318\M0+2-20160325\06-User\SD-KL-CD(V6.5)-20160501\02-Software\KL25-program\ch06-UART-20160501\KL25_UART\Debug/../03_MCU/startup_MKL25Z4.S:176
    bx r0
     846:	4700      	bx	r0
$d():
E:\work-201605\2012-2016 M0+1-20160318\M0+2-20160325\06-User\SD-KL-CD(V6.5)-20160501\02-Software\KL25-program\ch06-UART-20160501\KL25_UART\Debug/../03_MCU/startup_MKL25Z4.S:175
    .align	1
    .thumb_func
    .weak DefaultISR
    .type DefaultISR, %function
DefaultISR:
    ldr	r0, =DefaultISR
     848:	00000845 	.word	0x00000845

0000084c <__aeabi_uidiv>:
__udivsi3():
     84c:	2900      	cmp	r1, #0
     84e:	d034      	beq.n	8ba <.udivsi3_skip_div0_test+0x6a>

00000850 <.udivsi3_skip_div0_test>:
     850:	2301      	movs	r3, #1
     852:	2200      	movs	r2, #0
     854:	b410      	push	{r4}
     856:	4288      	cmp	r0, r1
     858:	d32c      	bcc.n	8b4 <.udivsi3_skip_div0_test+0x64>
     85a:	2401      	movs	r4, #1
     85c:	0724      	lsls	r4, r4, #28
     85e:	42a1      	cmp	r1, r4
     860:	d204      	bcs.n	86c <.udivsi3_skip_div0_test+0x1c>
     862:	4281      	cmp	r1, r0
     864:	d202      	bcs.n	86c <.udivsi3_skip_div0_test+0x1c>
     866:	0109      	lsls	r1, r1, #4
     868:	011b      	lsls	r3, r3, #4
     86a:	e7f8      	b.n	85e <.udivsi3_skip_div0_test+0xe>
     86c:	00e4      	lsls	r4, r4, #3
     86e:	42a1      	cmp	r1, r4
     870:	d204      	bcs.n	87c <.udivsi3_skip_div0_test+0x2c>
     872:	4281      	cmp	r1, r0
     874:	d202      	bcs.n	87c <.udivsi3_skip_div0_test+0x2c>
     876:	0049      	lsls	r1, r1, #1
     878:	005b      	lsls	r3, r3, #1
     87a:	e7f8      	b.n	86e <.udivsi3_skip_div0_test+0x1e>
     87c:	4288      	cmp	r0, r1
     87e:	d301      	bcc.n	884 <.udivsi3_skip_div0_test+0x34>
     880:	1a40      	subs	r0, r0, r1
     882:	431a      	orrs	r2, r3
     884:	084c      	lsrs	r4, r1, #1
     886:	42a0      	cmp	r0, r4
     888:	d302      	bcc.n	890 <.udivsi3_skip_div0_test+0x40>
     88a:	1b00      	subs	r0, r0, r4
     88c:	085c      	lsrs	r4, r3, #1
     88e:	4322      	orrs	r2, r4
     890:	088c      	lsrs	r4, r1, #2
     892:	42a0      	cmp	r0, r4
     894:	d302      	bcc.n	89c <.udivsi3_skip_div0_test+0x4c>
     896:	1b00      	subs	r0, r0, r4
     898:	089c      	lsrs	r4, r3, #2
     89a:	4322      	orrs	r2, r4
     89c:	08cc      	lsrs	r4, r1, #3
     89e:	42a0      	cmp	r0, r4
     8a0:	d302      	bcc.n	8a8 <.udivsi3_skip_div0_test+0x58>
     8a2:	1b00      	subs	r0, r0, r4
     8a4:	08dc      	lsrs	r4, r3, #3
     8a6:	4322      	orrs	r2, r4
     8a8:	2800      	cmp	r0, #0
     8aa:	d003      	beq.n	8b4 <.udivsi3_skip_div0_test+0x64>
     8ac:	091b      	lsrs	r3, r3, #4
     8ae:	d001      	beq.n	8b4 <.udivsi3_skip_div0_test+0x64>
     8b0:	0909      	lsrs	r1, r1, #4
     8b2:	e7e3      	b.n	87c <.udivsi3_skip_div0_test+0x2c>
     8b4:	1c10      	adds	r0, r2, #0
     8b6:	bc10      	pop	{r4}
     8b8:	4770      	bx	lr
     8ba:	2800      	cmp	r0, #0
     8bc:	d001      	beq.n	8c2 <.udivsi3_skip_div0_test+0x72>
     8be:	2000      	movs	r0, #0
     8c0:	43c0      	mvns	r0, r0
     8c2:	b407      	push	{r0, r1, r2}
     8c4:	4802      	ldr	r0, [pc, #8]	; (8d0 <.udivsi3_skip_div0_test+0x80>)
     8c6:	a102      	add	r1, pc, #8	; (adr r1, 8d0 <.udivsi3_skip_div0_test+0x80>)
     8c8:	1840      	adds	r0, r0, r1
     8ca:	9002      	str	r0, [sp, #8]
     8cc:	bd03      	pop	{r0, r1, pc}
     8ce:	46c0      	nop			; (mov r8, r8)
     8d0:	000000d9 	.word	0x000000d9

000008d4 <__aeabi_uidivmod>:
__aeabi_uidivmod():
     8d4:	2900      	cmp	r1, #0
     8d6:	d0f0      	beq.n	8ba <.udivsi3_skip_div0_test+0x6a>
     8d8:	b503      	push	{r0, r1, lr}
     8da:	f7ff ffb9 	bl	850 <.udivsi3_skip_div0_test>
     8de:	bc0e      	pop	{r1, r2, r3}
     8e0:	4342      	muls	r2, r0
     8e2:	1a89      	subs	r1, r1, r2
     8e4:	4718      	bx	r3
     8e6:	46c0      	nop			; (mov r8, r8)

000008e8 <__aeabi_idiv>:
__divsi3():
     8e8:	2900      	cmp	r1, #0
     8ea:	d041      	beq.n	970 <.divsi3_skip_div0_test+0x84>

000008ec <.divsi3_skip_div0_test>:
     8ec:	b410      	push	{r4}
     8ee:	1c04      	adds	r4, r0, #0
     8f0:	404c      	eors	r4, r1
     8f2:	46a4      	mov	ip, r4
     8f4:	2301      	movs	r3, #1
     8f6:	2200      	movs	r2, #0
     8f8:	2900      	cmp	r1, #0
     8fa:	d500      	bpl.n	8fe <.divsi3_skip_div0_test+0x12>
     8fc:	4249      	negs	r1, r1
     8fe:	2800      	cmp	r0, #0
     900:	d500      	bpl.n	904 <.divsi3_skip_div0_test+0x18>
     902:	4240      	negs	r0, r0
     904:	4288      	cmp	r0, r1
     906:	d32c      	bcc.n	962 <.divsi3_skip_div0_test+0x76>
     908:	2401      	movs	r4, #1
     90a:	0724      	lsls	r4, r4, #28
     90c:	42a1      	cmp	r1, r4
     90e:	d204      	bcs.n	91a <.divsi3_skip_div0_test+0x2e>
     910:	4281      	cmp	r1, r0
     912:	d202      	bcs.n	91a <.divsi3_skip_div0_test+0x2e>
     914:	0109      	lsls	r1, r1, #4
     916:	011b      	lsls	r3, r3, #4
     918:	e7f8      	b.n	90c <.divsi3_skip_div0_test+0x20>
     91a:	00e4      	lsls	r4, r4, #3
     91c:	42a1      	cmp	r1, r4
     91e:	d204      	bcs.n	92a <.divsi3_skip_div0_test+0x3e>
     920:	4281      	cmp	r1, r0
     922:	d202      	bcs.n	92a <.divsi3_skip_div0_test+0x3e>
     924:	0049      	lsls	r1, r1, #1
     926:	005b      	lsls	r3, r3, #1
     928:	e7f8      	b.n	91c <.divsi3_skip_div0_test+0x30>
     92a:	4288      	cmp	r0, r1
     92c:	d301      	bcc.n	932 <.divsi3_skip_div0_test+0x46>
     92e:	1a40      	subs	r0, r0, r1
     930:	431a      	orrs	r2, r3
     932:	084c      	lsrs	r4, r1, #1
     934:	42a0      	cmp	r0, r4
     936:	d302      	bcc.n	93e <.divsi3_skip_div0_test+0x52>
     938:	1b00      	subs	r0, r0, r4
     93a:	085c      	lsrs	r4, r3, #1
     93c:	4322      	orrs	r2, r4
     93e:	088c      	lsrs	r4, r1, #2
     940:	42a0      	cmp	r0, r4
     942:	d302      	bcc.n	94a <.divsi3_skip_div0_test+0x5e>
     944:	1b00      	subs	r0, r0, r4
     946:	089c      	lsrs	r4, r3, #2
     948:	4322      	orrs	r2, r4
     94a:	08cc      	lsrs	r4, r1, #3
     94c:	42a0      	cmp	r0, r4
     94e:	d302      	bcc.n	956 <.divsi3_skip_div0_test+0x6a>
     950:	1b00      	subs	r0, r0, r4
     952:	08dc      	lsrs	r4, r3, #3
     954:	4322      	orrs	r2, r4
     956:	2800      	cmp	r0, #0
     958:	d003      	beq.n	962 <.divsi3_skip_div0_test+0x76>
     95a:	091b      	lsrs	r3, r3, #4
     95c:	d001      	beq.n	962 <.divsi3_skip_div0_test+0x76>
     95e:	0909      	lsrs	r1, r1, #4
     960:	e7e3      	b.n	92a <.divsi3_skip_div0_test+0x3e>
     962:	1c10      	adds	r0, r2, #0
     964:	4664      	mov	r4, ip
     966:	2c00      	cmp	r4, #0
     968:	d500      	bpl.n	96c <.divsi3_skip_div0_test+0x80>
     96a:	4240      	negs	r0, r0
     96c:	bc10      	pop	{r4}
     96e:	4770      	bx	lr
     970:	2800      	cmp	r0, #0
     972:	d006      	beq.n	982 <.divsi3_skip_div0_test+0x96>
     974:	db03      	blt.n	97e <.divsi3_skip_div0_test+0x92>
     976:	2000      	movs	r0, #0
     978:	43c0      	mvns	r0, r0
     97a:	0840      	lsrs	r0, r0, #1
     97c:	e001      	b.n	982 <.divsi3_skip_div0_test+0x96>
     97e:	2080      	movs	r0, #128	; 0x80
     980:	0600      	lsls	r0, r0, #24
     982:	b407      	push	{r0, r1, r2}
     984:	4802      	ldr	r0, [pc, #8]	; (990 <.divsi3_skip_div0_test+0xa4>)
     986:	a102      	add	r1, pc, #8	; (adr r1, 990 <.divsi3_skip_div0_test+0xa4>)
     988:	1840      	adds	r0, r0, r1
     98a:	9002      	str	r0, [sp, #8]
     98c:	bd03      	pop	{r0, r1, pc}
     98e:	46c0      	nop			; (mov r8, r8)
     990:	00000019 	.word	0x00000019

00000994 <__aeabi_idivmod>:
__aeabi_idivmod():
     994:	2900      	cmp	r1, #0
     996:	d0eb      	beq.n	970 <.divsi3_skip_div0_test+0x84>
     998:	b503      	push	{r0, r1, lr}
     99a:	f7ff ffa7 	bl	8ec <.divsi3_skip_div0_test>
     99e:	bc0e      	pop	{r1, r2, r3}
     9a0:	4342      	muls	r2, r0
     9a2:	1a89      	subs	r1, r1, r2
     9a4:	4718      	bx	r3
     9a6:	46c0      	nop			; (mov r8, r8)

000009a8 <__aeabi_idiv0>:
__aeabi_ldiv0():
     9a8:	4770      	bx	lr
     9aa:	46c0      	nop			; (mov r8, r8)

000009ac <__aeabi_cdrcmple>:
__aeabi_cdrcmple():
     9ac:	4684      	mov	ip, r0
     9ae:	1c10      	adds	r0, r2, #0
     9b0:	4662      	mov	r2, ip
     9b2:	468c      	mov	ip, r1
     9b4:	1c19      	adds	r1, r3, #0
     9b6:	4663      	mov	r3, ip
     9b8:	e000      	b.n	9bc <__aeabi_cdcmpeq>
     9ba:	46c0      	nop			; (mov r8, r8)

000009bc <__aeabi_cdcmpeq>:
     9bc:	b51f      	push	{r0, r1, r2, r3, r4, lr}
     9be:	f000 f995 	bl	cec <__ledf2>
     9c2:	2800      	cmp	r0, #0
     9c4:	d401      	bmi.n	9ca <__aeabi_cdcmpeq+0xe>
     9c6:	2100      	movs	r1, #0
     9c8:	42c8      	cmn	r0, r1
     9ca:	bd1f      	pop	{r0, r1, r2, r3, r4, pc}

000009cc <__aeabi_dcmpeq>:
__aeabi_dcmpeq():
     9cc:	b510      	push	{r4, lr}
     9ce:	f000 f8c5 	bl	b5c <__eqdf2>
     9d2:	4240      	negs	r0, r0
     9d4:	3001      	adds	r0, #1
     9d6:	bd10      	pop	{r4, pc}

000009d8 <__aeabi_dcmplt>:
__aeabi_dcmplt():
     9d8:	b510      	push	{r4, lr}
     9da:	f000 f987 	bl	cec <__ledf2>
     9de:	2800      	cmp	r0, #0
     9e0:	db01      	blt.n	9e6 <__aeabi_dcmplt+0xe>
     9e2:	2000      	movs	r0, #0
     9e4:	bd10      	pop	{r4, pc}
     9e6:	2001      	movs	r0, #1
     9e8:	bd10      	pop	{r4, pc}
     9ea:	46c0      	nop			; (mov r8, r8)

000009ec <__aeabi_dcmple>:
__aeabi_dcmple():
     9ec:	b510      	push	{r4, lr}
     9ee:	f000 f97d 	bl	cec <__ledf2>
     9f2:	2800      	cmp	r0, #0
     9f4:	dd01      	ble.n	9fa <__aeabi_dcmple+0xe>
     9f6:	2000      	movs	r0, #0
     9f8:	bd10      	pop	{r4, pc}
     9fa:	2001      	movs	r0, #1
     9fc:	bd10      	pop	{r4, pc}
     9fe:	46c0      	nop			; (mov r8, r8)

00000a00 <__aeabi_dcmpgt>:
__aeabi_dcmpgt():
     a00:	b510      	push	{r4, lr}
     a02:	f000 f8f5 	bl	bf0 <__gedf2>
     a06:	2800      	cmp	r0, #0
     a08:	dc01      	bgt.n	a0e <__aeabi_dcmpgt+0xe>
     a0a:	2000      	movs	r0, #0
     a0c:	bd10      	pop	{r4, pc}
     a0e:	2001      	movs	r0, #1
     a10:	bd10      	pop	{r4, pc}
     a12:	46c0      	nop			; (mov r8, r8)

00000a14 <__aeabi_dcmpge>:
__aeabi_dcmpge():
     a14:	b510      	push	{r4, lr}
     a16:	f000 f8eb 	bl	bf0 <__gedf2>
     a1a:	2800      	cmp	r0, #0
     a1c:	da01      	bge.n	a22 <__aeabi_dcmpge+0xe>
     a1e:	2000      	movs	r0, #0
     a20:	bd10      	pop	{r4, pc}
     a22:	2001      	movs	r0, #1
     a24:	bd10      	pop	{r4, pc}
     a26:	46c0      	nop			; (mov r8, r8)

00000a28 <__aeabi_uldivmod>:
__aeabi_uldivmod():
     a28:	2b00      	cmp	r3, #0
     a2a:	d111      	bne.n	a50 <__aeabi_uldivmod+0x28>
     a2c:	2a00      	cmp	r2, #0
     a2e:	d10f      	bne.n	a50 <__aeabi_uldivmod+0x28>
     a30:	2900      	cmp	r1, #0
     a32:	d100      	bne.n	a36 <__aeabi_uldivmod+0xe>
     a34:	2800      	cmp	r0, #0
     a36:	d002      	beq.n	a3e <__aeabi_uldivmod+0x16>
     a38:	2100      	movs	r1, #0
     a3a:	43c9      	mvns	r1, r1
     a3c:	1c08      	adds	r0, r1, #0
     a3e:	b407      	push	{r0, r1, r2}
     a40:	4802      	ldr	r0, [pc, #8]	; (a4c <__aeabi_uldivmod+0x24>)
     a42:	a102      	add	r1, pc, #8	; (adr r1, a4c <__aeabi_uldivmod+0x24>)
     a44:	1840      	adds	r0, r0, r1
     a46:	9002      	str	r0, [sp, #8]
     a48:	bd03      	pop	{r0, r1, pc}
     a4a:	46c0      	nop			; (mov r8, r8)
     a4c:	ffffff5d 	.word	0xffffff5d
     a50:	b403      	push	{r0, r1}
     a52:	4668      	mov	r0, sp
     a54:	b501      	push	{r0, lr}
     a56:	9802      	ldr	r0, [sp, #8]
     a58:	f000 f866 	bl	b28 <__gnu_uldivmod_helper>
     a5c:	9b01      	ldr	r3, [sp, #4]
     a5e:	469e      	mov	lr, r3
     a60:	b002      	add	sp, #8
     a62:	bc0c      	pop	{r2, r3}
     a64:	4770      	bx	lr
$t():
     a66:	46c0      	nop			; (mov r8, r8)

00000a68 <__aeabi_d2uiz>:
__fixunsdfsi():
     a68:	b538      	push	{r3, r4, r5, lr}
     a6a:	4b0e      	ldr	r3, [pc, #56]	; (aa4 <__aeabi_d2uiz+0x3c>)
     a6c:	4a0c      	ldr	r2, [pc, #48]	; (aa0 <__aeabi_d2uiz+0x38>)
     a6e:	1c04      	adds	r4, r0, #0
     a70:	1c0d      	adds	r5, r1, #0
     a72:	f7ff ffcf 	bl	a14 <__aeabi_dcmpge>
     a76:	2800      	cmp	r0, #0
     a78:	d104      	bne.n	a84 <__aeabi_d2uiz+0x1c>
     a7a:	1c20      	adds	r0, r4, #0
     a7c:	1c29      	adds	r1, r5, #0
     a7e:	f000 ff77 	bl	1970 <__aeabi_d2iz>
     a82:	bd38      	pop	{r3, r4, r5, pc}
     a84:	4b07      	ldr	r3, [pc, #28]	; (aa4 <__aeabi_d2uiz+0x3c>)
     a86:	4a06      	ldr	r2, [pc, #24]	; (aa0 <__aeabi_d2uiz+0x38>)
     a88:	1c20      	adds	r0, r4, #0
     a8a:	1c29      	adds	r1, r5, #0
     a8c:	f000 fc3c 	bl	1308 <__aeabi_dsub>
     a90:	f000 ff6e 	bl	1970 <__aeabi_d2iz>
     a94:	2380      	movs	r3, #128	; 0x80
     a96:	061b      	lsls	r3, r3, #24
     a98:	18c0      	adds	r0, r0, r3
     a9a:	e7f2      	b.n	a82 <__aeabi_d2uiz+0x1a>
     a9c:	46c0      	nop			; (mov r8, r8)
     a9e:	46c0      	nop			; (mov r8, r8)
     aa0:	00000000 	.word	0x00000000
     aa4:	41e00000 	.word	0x41e00000

00000aa8 <__aeabi_d2ulz>:
__aeabi_d2ulz():
     aa8:	b570      	push	{r4, r5, r6, lr}
     aaa:	4b0e      	ldr	r3, [pc, #56]	; (ae4 <__aeabi_d2ulz+0x3c>)
     aac:	4a0c      	ldr	r2, [pc, #48]	; (ae0 <__aeabi_d2ulz+0x38>)
     aae:	1c0d      	adds	r5, r1, #0
     ab0:	1c04      	adds	r4, r0, #0
     ab2:	f000 f999 	bl	de8 <__aeabi_dmul>
     ab6:	f7ff ffd7 	bl	a68 <__aeabi_d2uiz>
     aba:	1c06      	adds	r6, r0, #0
     abc:	f000 ff8c 	bl	19d8 <__aeabi_ui2d>
     ac0:	4a09      	ldr	r2, [pc, #36]	; (ae8 <__aeabi_d2ulz+0x40>)
     ac2:	4b0a      	ldr	r3, [pc, #40]	; (aec <__aeabi_d2ulz+0x44>)
     ac4:	f000 f990 	bl	de8 <__aeabi_dmul>
     ac8:	1c02      	adds	r2, r0, #0
     aca:	1c0b      	adds	r3, r1, #0
     acc:	1c20      	adds	r0, r4, #0
     ace:	1c29      	adds	r1, r5, #0
     ad0:	f000 fc1a 	bl	1308 <__aeabi_dsub>
     ad4:	f7ff ffc8 	bl	a68 <__aeabi_d2uiz>
     ad8:	1c31      	adds	r1, r6, #0
     ada:	bd70      	pop	{r4, r5, r6, pc}
     adc:	46c0      	nop			; (mov r8, r8)
     ade:	46c0      	nop			; (mov r8, r8)
     ae0:	00000000 	.word	0x00000000
     ae4:	3df00000 	.word	0x3df00000
     ae8:	00000000 	.word	0x00000000
     aec:	41f00000 	.word	0x41f00000

00000af0 <__gnu_ldivmod_helper>:
__gnu_ldivmod_helper():
     af0:	b5f0      	push	{r4, r5, r6, r7, lr}
     af2:	b083      	sub	sp, #12
     af4:	1c16      	adds	r6, r2, #0
     af6:	1c1f      	adds	r7, r3, #0
     af8:	9000      	str	r0, [sp, #0]
     afa:	9101      	str	r1, [sp, #4]
     afc:	f000 ffe0 	bl	1ac0 <__divdi3>
     b00:	1c04      	adds	r4, r0, #0
     b02:	1c0d      	adds	r5, r1, #0
     b04:	1c22      	adds	r2, r4, #0
     b06:	1c2b      	adds	r3, r5, #0
     b08:	1c30      	adds	r0, r6, #0
     b0a:	1c39      	adds	r1, r7, #0
     b0c:	f000 ffb6 	bl	1a7c <__aeabi_lmul>
     b10:	9a00      	ldr	r2, [sp, #0]
     b12:	9b01      	ldr	r3, [sp, #4]
     b14:	1a12      	subs	r2, r2, r0
     b16:	418b      	sbcs	r3, r1
     b18:	9908      	ldr	r1, [sp, #32]
     b1a:	1c20      	adds	r0, r4, #0
     b1c:	600a      	str	r2, [r1, #0]
     b1e:	604b      	str	r3, [r1, #4]
     b20:	1c29      	adds	r1, r5, #0
     b22:	b003      	add	sp, #12
     b24:	bdf0      	pop	{r4, r5, r6, r7, pc}
     b26:	46c0      	nop			; (mov r8, r8)

00000b28 <__gnu_uldivmod_helper>:
__gnu_uldivmod_helper():
     b28:	b5f0      	push	{r4, r5, r6, r7, lr}
     b2a:	b083      	sub	sp, #12
     b2c:	1c14      	adds	r4, r2, #0
     b2e:	1c1d      	adds	r5, r3, #0
     b30:	9000      	str	r0, [sp, #0]
     b32:	9101      	str	r1, [sp, #4]
     b34:	f001 f9a0 	bl	1e78 <__udivdi3>
     b38:	1c22      	adds	r2, r4, #0
     b3a:	1c2b      	adds	r3, r5, #0
     b3c:	1c06      	adds	r6, r0, #0
     b3e:	1c0f      	adds	r7, r1, #0
     b40:	f000 ff9c 	bl	1a7c <__aeabi_lmul>
     b44:	9a00      	ldr	r2, [sp, #0]
     b46:	9b01      	ldr	r3, [sp, #4]
     b48:	1a12      	subs	r2, r2, r0
     b4a:	418b      	sbcs	r3, r1
     b4c:	9908      	ldr	r1, [sp, #32]
     b4e:	1c30      	adds	r0, r6, #0
     b50:	600a      	str	r2, [r1, #0]
     b52:	604b      	str	r3, [r1, #4]
     b54:	1c39      	adds	r1, r7, #0
     b56:	b003      	add	sp, #12
     b58:	bdf0      	pop	{r4, r5, r6, r7, pc}
     b5a:	46c0      	nop			; (mov r8, r8)

00000b5c <__eqdf2>:
__eqdf2():
     b5c:	b5f0      	push	{r4, r5, r6, r7, lr}
     b5e:	465f      	mov	r7, fp
     b60:	4656      	mov	r6, sl
     b62:	464d      	mov	r5, r9
     b64:	4644      	mov	r4, r8
     b66:	b4f0      	push	{r4, r5, r6, r7}
     b68:	1c0d      	adds	r5, r1, #0
     b6a:	1c04      	adds	r4, r0, #0
     b6c:	4680      	mov	r8, r0
     b6e:	0fe8      	lsrs	r0, r5, #31
     b70:	4681      	mov	r9, r0
     b72:	0318      	lsls	r0, r3, #12
     b74:	030f      	lsls	r7, r1, #12
     b76:	0b00      	lsrs	r0, r0, #12
     b78:	0b3f      	lsrs	r7, r7, #12
     b7a:	b083      	sub	sp, #12
     b7c:	4684      	mov	ip, r0
     b7e:	481b      	ldr	r0, [pc, #108]	; (bec <__eqdf2+0x90>)
     b80:	9700      	str	r7, [sp, #0]
     b82:	0049      	lsls	r1, r1, #1
     b84:	005e      	lsls	r6, r3, #1
     b86:	0fdf      	lsrs	r7, r3, #31
     b88:	0d49      	lsrs	r1, r1, #21
     b8a:	4692      	mov	sl, r2
     b8c:	0d76      	lsrs	r6, r6, #21
     b8e:	46bb      	mov	fp, r7
     b90:	4281      	cmp	r1, r0
     b92:	d00c      	beq.n	bae <__eqdf2+0x52>
     b94:	4815      	ldr	r0, [pc, #84]	; (bec <__eqdf2+0x90>)
     b96:	4286      	cmp	r6, r0
     b98:	d010      	beq.n	bbc <__eqdf2+0x60>
     b9a:	2001      	movs	r0, #1
     b9c:	42b1      	cmp	r1, r6
     b9e:	d015      	beq.n	bcc <__eqdf2+0x70>
     ba0:	b003      	add	sp, #12
     ba2:	bc3c      	pop	{r2, r3, r4, r5}
     ba4:	4690      	mov	r8, r2
     ba6:	4699      	mov	r9, r3
     ba8:	46a2      	mov	sl, r4
     baa:	46ab      	mov	fp, r5
     bac:	bdf0      	pop	{r4, r5, r6, r7, pc}
     bae:	9f00      	ldr	r7, [sp, #0]
     bb0:	2001      	movs	r0, #1
     bb2:	4327      	orrs	r7, r4
     bb4:	d1f4      	bne.n	ba0 <__eqdf2+0x44>
     bb6:	480d      	ldr	r0, [pc, #52]	; (bec <__eqdf2+0x90>)
     bb8:	4286      	cmp	r6, r0
     bba:	d1ee      	bne.n	b9a <__eqdf2+0x3e>
     bbc:	4660      	mov	r0, ip
     bbe:	4302      	orrs	r2, r0
     bc0:	2001      	movs	r0, #1
     bc2:	2a00      	cmp	r2, #0
     bc4:	d1ec      	bne.n	ba0 <__eqdf2+0x44>
     bc6:	2001      	movs	r0, #1
     bc8:	42b1      	cmp	r1, r6
     bca:	d1e9      	bne.n	ba0 <__eqdf2+0x44>
     bcc:	9b00      	ldr	r3, [sp, #0]
     bce:	4563      	cmp	r3, ip
     bd0:	d1e6      	bne.n	ba0 <__eqdf2+0x44>
     bd2:	45d0      	cmp	r8, sl
     bd4:	d1e4      	bne.n	ba0 <__eqdf2+0x44>
     bd6:	45d9      	cmp	r9, fp
     bd8:	d006      	beq.n	be8 <__eqdf2+0x8c>
     bda:	2900      	cmp	r1, #0
     bdc:	d1e0      	bne.n	ba0 <__eqdf2+0x44>
     bde:	431c      	orrs	r4, r3
     be0:	1c20      	adds	r0, r4, #0
     be2:	1e44      	subs	r4, r0, #1
     be4:	41a0      	sbcs	r0, r4
     be6:	e7db      	b.n	ba0 <__eqdf2+0x44>
     be8:	2000      	movs	r0, #0
     bea:	e7d9      	b.n	ba0 <__eqdf2+0x44>
     bec:	000007ff 	.word	0x000007ff

00000bf0 <__gedf2>:
__gtdf2():
     bf0:	b5f0      	push	{r4, r5, r6, r7, lr}
     bf2:	465f      	mov	r7, fp
     bf4:	4656      	mov	r6, sl
     bf6:	464d      	mov	r5, r9
     bf8:	4644      	mov	r4, r8
     bfa:	b4f0      	push	{r4, r5, r6, r7}
     bfc:	0fcd      	lsrs	r5, r1, #31
     bfe:	0fde      	lsrs	r6, r3, #31
     c00:	46ac      	mov	ip, r5
     c02:	031d      	lsls	r5, r3, #12
     c04:	0b2d      	lsrs	r5, r5, #12
     c06:	46b1      	mov	r9, r6
     c08:	4e37      	ldr	r6, [pc, #220]	; (ce8 <__gedf2+0xf8>)
     c0a:	030f      	lsls	r7, r1, #12
     c0c:	004c      	lsls	r4, r1, #1
     c0e:	46ab      	mov	fp, r5
     c10:	005d      	lsls	r5, r3, #1
     c12:	4680      	mov	r8, r0
     c14:	0b3f      	lsrs	r7, r7, #12
     c16:	0d64      	lsrs	r4, r4, #21
     c18:	4692      	mov	sl, r2
     c1a:	0d6d      	lsrs	r5, r5, #21
     c1c:	42b4      	cmp	r4, r6
     c1e:	d032      	beq.n	c86 <__gedf2+0x96>
     c20:	4e31      	ldr	r6, [pc, #196]	; (ce8 <__gedf2+0xf8>)
     c22:	42b5      	cmp	r5, r6
     c24:	d035      	beq.n	c92 <__gedf2+0xa2>
     c26:	2c00      	cmp	r4, #0
     c28:	d10e      	bne.n	c48 <__gedf2+0x58>
     c2a:	4338      	orrs	r0, r7
     c2c:	4241      	negs	r1, r0
     c2e:	4141      	adcs	r1, r0
     c30:	1c08      	adds	r0, r1, #0
     c32:	2d00      	cmp	r5, #0
     c34:	d00b      	beq.n	c4e <__gedf2+0x5e>
     c36:	2900      	cmp	r1, #0
     c38:	d119      	bne.n	c6e <__gedf2+0x7e>
     c3a:	45cc      	cmp	ip, r9
     c3c:	d02d      	beq.n	c9a <__gedf2+0xaa>
     c3e:	4665      	mov	r5, ip
     c40:	4268      	negs	r0, r5
     c42:	2301      	movs	r3, #1
     c44:	4318      	orrs	r0, r3
     c46:	e018      	b.n	c7a <__gedf2+0x8a>
     c48:	2d00      	cmp	r5, #0
     c4a:	d1f6      	bne.n	c3a <__gedf2+0x4a>
     c4c:	1c28      	adds	r0, r5, #0
     c4e:	4659      	mov	r1, fp
     c50:	430a      	orrs	r2, r1
     c52:	4253      	negs	r3, r2
     c54:	4153      	adcs	r3, r2
     c56:	2800      	cmp	r0, #0
     c58:	d106      	bne.n	c68 <__gedf2+0x78>
     c5a:	2b00      	cmp	r3, #0
     c5c:	d0ed      	beq.n	c3a <__gedf2+0x4a>
     c5e:	4663      	mov	r3, ip
     c60:	4258      	negs	r0, r3
     c62:	2301      	movs	r3, #1
     c64:	4318      	orrs	r0, r3
     c66:	e008      	b.n	c7a <__gedf2+0x8a>
     c68:	2000      	movs	r0, #0
     c6a:	2b00      	cmp	r3, #0
     c6c:	d105      	bne.n	c7a <__gedf2+0x8a>
     c6e:	464a      	mov	r2, r9
     c70:	4250      	negs	r0, r2
     c72:	4150      	adcs	r0, r2
     c74:	4240      	negs	r0, r0
     c76:	2301      	movs	r3, #1
     c78:	4318      	orrs	r0, r3
     c7a:	bc3c      	pop	{r2, r3, r4, r5}
     c7c:	4690      	mov	r8, r2
     c7e:	4699      	mov	r9, r3
     c80:	46a2      	mov	sl, r4
     c82:	46ab      	mov	fp, r5
     c84:	bdf0      	pop	{r4, r5, r6, r7, pc}
     c86:	1c3e      	adds	r6, r7, #0
     c88:	4306      	orrs	r6, r0
     c8a:	d0c9      	beq.n	c20 <__gedf2+0x30>
     c8c:	2002      	movs	r0, #2
     c8e:	4240      	negs	r0, r0
     c90:	e7f3      	b.n	c7a <__gedf2+0x8a>
     c92:	465e      	mov	r6, fp
     c94:	4316      	orrs	r6, r2
     c96:	d0c6      	beq.n	c26 <__gedf2+0x36>
     c98:	e7f8      	b.n	c8c <__gedf2+0x9c>
     c9a:	42ac      	cmp	r4, r5
     c9c:	dc07      	bgt.n	cae <__gedf2+0xbe>
     c9e:	da0b      	bge.n	cb8 <__gedf2+0xc8>
     ca0:	4661      	mov	r1, ip
     ca2:	4248      	negs	r0, r1
     ca4:	4148      	adcs	r0, r1
     ca6:	4240      	negs	r0, r0
     ca8:	2301      	movs	r3, #1
     caa:	4318      	orrs	r0, r3
     cac:	e7e5      	b.n	c7a <__gedf2+0x8a>
     cae:	4666      	mov	r6, ip
     cb0:	4270      	negs	r0, r6
     cb2:	2301      	movs	r3, #1
     cb4:	4318      	orrs	r0, r3
     cb6:	e7e0      	b.n	c7a <__gedf2+0x8a>
     cb8:	455f      	cmp	r7, fp
     cba:	d80a      	bhi.n	cd2 <__gedf2+0xe2>
     cbc:	d00e      	beq.n	cdc <__gedf2+0xec>
     cbe:	2000      	movs	r0, #0
     cc0:	455f      	cmp	r7, fp
     cc2:	d2da      	bcs.n	c7a <__gedf2+0x8a>
     cc4:	4665      	mov	r5, ip
     cc6:	4268      	negs	r0, r5
     cc8:	4168      	adcs	r0, r5
     cca:	4240      	negs	r0, r0
     ccc:	2301      	movs	r3, #1
     cce:	4318      	orrs	r0, r3
     cd0:	e7d3      	b.n	c7a <__gedf2+0x8a>
     cd2:	4662      	mov	r2, ip
     cd4:	4250      	negs	r0, r2
     cd6:	2301      	movs	r3, #1
     cd8:	4318      	orrs	r0, r3
     cda:	e7ce      	b.n	c7a <__gedf2+0x8a>
     cdc:	45d0      	cmp	r8, sl
     cde:	d8f8      	bhi.n	cd2 <__gedf2+0xe2>
     ce0:	2000      	movs	r0, #0
     ce2:	45d0      	cmp	r8, sl
     ce4:	d3ee      	bcc.n	cc4 <__gedf2+0xd4>
     ce6:	e7c8      	b.n	c7a <__gedf2+0x8a>
     ce8:	000007ff 	.word	0x000007ff

00000cec <__ledf2>:
__ltdf2():
     cec:	b5f0      	push	{r4, r5, r6, r7, lr}
     cee:	4656      	mov	r6, sl
     cf0:	464d      	mov	r5, r9
     cf2:	4644      	mov	r4, r8
     cf4:	465f      	mov	r7, fp
     cf6:	b4f0      	push	{r4, r5, r6, r7}
     cf8:	1c0d      	adds	r5, r1, #0
     cfa:	b083      	sub	sp, #12
     cfc:	1c04      	adds	r4, r0, #0
     cfe:	9001      	str	r0, [sp, #4]
     d00:	0fe8      	lsrs	r0, r5, #31
     d02:	4681      	mov	r9, r0
     d04:	0318      	lsls	r0, r3, #12
     d06:	030f      	lsls	r7, r1, #12
     d08:	0b00      	lsrs	r0, r0, #12
     d0a:	0b3f      	lsrs	r7, r7, #12
     d0c:	4684      	mov	ip, r0
     d0e:	4835      	ldr	r0, [pc, #212]	; (de4 <__ledf2+0xf8>)
     d10:	9700      	str	r7, [sp, #0]
     d12:	0049      	lsls	r1, r1, #1
     d14:	005e      	lsls	r6, r3, #1
     d16:	0fdf      	lsrs	r7, r3, #31
     d18:	0d49      	lsrs	r1, r1, #21
     d1a:	4692      	mov	sl, r2
     d1c:	0d76      	lsrs	r6, r6, #21
     d1e:	46b8      	mov	r8, r7
     d20:	4281      	cmp	r1, r0
     d22:	d034      	beq.n	d8e <__ledf2+0xa2>
     d24:	482f      	ldr	r0, [pc, #188]	; (de4 <__ledf2+0xf8>)
     d26:	4286      	cmp	r6, r0
     d28:	d036      	beq.n	d98 <__ledf2+0xac>
     d2a:	2900      	cmp	r1, #0
     d2c:	d018      	beq.n	d60 <__ledf2+0x74>
     d2e:	2e00      	cmp	r6, #0
     d30:	d11f      	bne.n	d72 <__ledf2+0x86>
     d32:	1c34      	adds	r4, r6, #0
     d34:	4667      	mov	r7, ip
     d36:	433a      	orrs	r2, r7
     d38:	4253      	negs	r3, r2
     d3a:	4153      	adcs	r3, r2
     d3c:	2c00      	cmp	r4, #0
     d3e:	d01f      	beq.n	d80 <__ledf2+0x94>
     d40:	2000      	movs	r0, #0
     d42:	2b00      	cmp	r3, #0
     d44:	d105      	bne.n	d52 <__ledf2+0x66>
     d46:	4642      	mov	r2, r8
     d48:	4250      	negs	r0, r2
     d4a:	4150      	adcs	r0, r2
     d4c:	4240      	negs	r0, r0
     d4e:	2301      	movs	r3, #1
     d50:	4318      	orrs	r0, r3
     d52:	b003      	add	sp, #12
     d54:	bc3c      	pop	{r2, r3, r4, r5}
     d56:	4690      	mov	r8, r2
     d58:	4699      	mov	r9, r3
     d5a:	46a2      	mov	sl, r4
     d5c:	46ab      	mov	fp, r5
     d5e:	bdf0      	pop	{r4, r5, r6, r7, pc}
     d60:	9800      	ldr	r0, [sp, #0]
     d62:	4304      	orrs	r4, r0
     d64:	4260      	negs	r0, r4
     d66:	4160      	adcs	r0, r4
     d68:	1c04      	adds	r4, r0, #0
     d6a:	2e00      	cmp	r6, #0
     d6c:	d0e2      	beq.n	d34 <__ledf2+0x48>
     d6e:	2800      	cmp	r0, #0
     d70:	d1e9      	bne.n	d46 <__ledf2+0x5a>
     d72:	45c1      	cmp	r9, r8
     d74:	d015      	beq.n	da2 <__ledf2+0xb6>
     d76:	464f      	mov	r7, r9
     d78:	4278      	negs	r0, r7
     d7a:	2301      	movs	r3, #1
     d7c:	4318      	orrs	r0, r3
     d7e:	e7e8      	b.n	d52 <__ledf2+0x66>
     d80:	2b00      	cmp	r3, #0
     d82:	d0f6      	beq.n	d72 <__ledf2+0x86>
     d84:	464b      	mov	r3, r9
     d86:	4258      	negs	r0, r3
     d88:	2301      	movs	r3, #1
     d8a:	4318      	orrs	r0, r3
     d8c:	e7e1      	b.n	d52 <__ledf2+0x66>
     d8e:	9f00      	ldr	r7, [sp, #0]
     d90:	2002      	movs	r0, #2
     d92:	4327      	orrs	r7, r4
     d94:	d1dd      	bne.n	d52 <__ledf2+0x66>
     d96:	e7c5      	b.n	d24 <__ledf2+0x38>
     d98:	4667      	mov	r7, ip
     d9a:	2002      	movs	r0, #2
     d9c:	4317      	orrs	r7, r2
     d9e:	d1d8      	bne.n	d52 <__ledf2+0x66>
     da0:	e7c3      	b.n	d2a <__ledf2+0x3e>
     da2:	42b1      	cmp	r1, r6
     da4:	dd04      	ble.n	db0 <__ledf2+0xc4>
     da6:	464a      	mov	r2, r9
     da8:	4250      	negs	r0, r2
     daa:	2301      	movs	r3, #1
     dac:	4318      	orrs	r0, r3
     dae:	e7d0      	b.n	d52 <__ledf2+0x66>
     db0:	42b1      	cmp	r1, r6
     db2:	db07      	blt.n	dc4 <__ledf2+0xd8>
     db4:	9800      	ldr	r0, [sp, #0]
     db6:	4560      	cmp	r0, ip
     db8:	d8e4      	bhi.n	d84 <__ledf2+0x98>
     dba:	d00a      	beq.n	dd2 <__ledf2+0xe6>
     dbc:	9f00      	ldr	r7, [sp, #0]
     dbe:	2000      	movs	r0, #0
     dc0:	4567      	cmp	r7, ip
     dc2:	d2c6      	bcs.n	d52 <__ledf2+0x66>
     dc4:	464f      	mov	r7, r9
     dc6:	4278      	negs	r0, r7
     dc8:	4178      	adcs	r0, r7
     dca:	4240      	negs	r0, r0
     dcc:	2301      	movs	r3, #1
     dce:	4318      	orrs	r0, r3
     dd0:	e7bf      	b.n	d52 <__ledf2+0x66>
     dd2:	9a01      	ldr	r2, [sp, #4]
     dd4:	4552      	cmp	r2, sl
     dd6:	d8d5      	bhi.n	d84 <__ledf2+0x98>
     dd8:	9a01      	ldr	r2, [sp, #4]
     dda:	2000      	movs	r0, #0
     ddc:	4552      	cmp	r2, sl
     dde:	d3f1      	bcc.n	dc4 <__ledf2+0xd8>
     de0:	e7b7      	b.n	d52 <__ledf2+0x66>
     de2:	46c0      	nop			; (mov r8, r8)
     de4:	000007ff 	.word	0x000007ff

00000de8 <__aeabi_dmul>:
__aeabi_dmul():
     de8:	b5f0      	push	{r4, r5, r6, r7, lr}
     dea:	4656      	mov	r6, sl
     dec:	4644      	mov	r4, r8
     dee:	465f      	mov	r7, fp
     df0:	464d      	mov	r5, r9
     df2:	b4f0      	push	{r4, r5, r6, r7}
     df4:	1c1f      	adds	r7, r3, #0
     df6:	030b      	lsls	r3, r1, #12
     df8:	0b1b      	lsrs	r3, r3, #12
     dfa:	469a      	mov	sl, r3
     dfc:	004b      	lsls	r3, r1, #1
     dfe:	b087      	sub	sp, #28
     e00:	1c04      	adds	r4, r0, #0
     e02:	4680      	mov	r8, r0
     e04:	0d5b      	lsrs	r3, r3, #21
     e06:	0fc8      	lsrs	r0, r1, #31
     e08:	1c16      	adds	r6, r2, #0
     e0a:	9302      	str	r3, [sp, #8]
     e0c:	4681      	mov	r9, r0
     e0e:	2b00      	cmp	r3, #0
     e10:	d068      	beq.n	ee4 <__aeabi_dmul+0xfc>
     e12:	4b69      	ldr	r3, [pc, #420]	; (fb8 <__aeabi_dmul+0x1d0>)
     e14:	9902      	ldr	r1, [sp, #8]
     e16:	4299      	cmp	r1, r3
     e18:	d032      	beq.n	e80 <__aeabi_dmul+0x98>
     e1a:	2280      	movs	r2, #128	; 0x80
     e1c:	4653      	mov	r3, sl
     e1e:	0352      	lsls	r2, r2, #13
     e20:	431a      	orrs	r2, r3
     e22:	00d2      	lsls	r2, r2, #3
     e24:	0f63      	lsrs	r3, r4, #29
     e26:	431a      	orrs	r2, r3
     e28:	4692      	mov	sl, r2
     e2a:	4a64      	ldr	r2, [pc, #400]	; (fbc <__aeabi_dmul+0x1d4>)
     e2c:	00e0      	lsls	r0, r4, #3
     e2e:	1889      	adds	r1, r1, r2
     e30:	4680      	mov	r8, r0
     e32:	9102      	str	r1, [sp, #8]
     e34:	2400      	movs	r4, #0
     e36:	2500      	movs	r5, #0
     e38:	033b      	lsls	r3, r7, #12
     e3a:	0b1b      	lsrs	r3, r3, #12
     e3c:	469b      	mov	fp, r3
     e3e:	0078      	lsls	r0, r7, #1
     e40:	0ffb      	lsrs	r3, r7, #31
     e42:	1c32      	adds	r2, r6, #0
     e44:	0d40      	lsrs	r0, r0, #21
     e46:	9303      	str	r3, [sp, #12]
     e48:	d100      	bne.n	e4c <__aeabi_dmul+0x64>
     e4a:	e075      	b.n	f38 <__aeabi_dmul+0x150>
     e4c:	4b5a      	ldr	r3, [pc, #360]	; (fb8 <__aeabi_dmul+0x1d0>)
     e4e:	4298      	cmp	r0, r3
     e50:	d069      	beq.n	f26 <__aeabi_dmul+0x13e>
     e52:	2280      	movs	r2, #128	; 0x80
     e54:	4659      	mov	r1, fp
     e56:	0352      	lsls	r2, r2, #13
     e58:	430a      	orrs	r2, r1
     e5a:	0f73      	lsrs	r3, r6, #29
     e5c:	00d2      	lsls	r2, r2, #3
     e5e:	431a      	orrs	r2, r3
     e60:	4b56      	ldr	r3, [pc, #344]	; (fbc <__aeabi_dmul+0x1d4>)
     e62:	4693      	mov	fp, r2
     e64:	18c0      	adds	r0, r0, r3
     e66:	00f2      	lsls	r2, r6, #3
     e68:	2300      	movs	r3, #0
     e6a:	9903      	ldr	r1, [sp, #12]
     e6c:	464e      	mov	r6, r9
     e6e:	4071      	eors	r1, r6
     e70:	431c      	orrs	r4, r3
     e72:	2c0f      	cmp	r4, #15
     e74:	d900      	bls.n	e78 <__aeabi_dmul+0x90>
     e76:	e0a9      	b.n	fcc <__aeabi_dmul+0x1e4>
     e78:	4e51      	ldr	r6, [pc, #324]	; (fc0 <__aeabi_dmul+0x1d8>)
     e7a:	00a4      	lsls	r4, r4, #2
     e7c:	5934      	ldr	r4, [r6, r4]
     e7e:	46a7      	mov	pc, r4
     e80:	4653      	mov	r3, sl
     e82:	431c      	orrs	r4, r3
     e84:	d000      	beq.n	e88 <__aeabi_dmul+0xa0>
     e86:	e087      	b.n	f98 <__aeabi_dmul+0x1b0>
     e88:	2500      	movs	r5, #0
     e8a:	46aa      	mov	sl, r5
     e8c:	46a8      	mov	r8, r5
     e8e:	2408      	movs	r4, #8
     e90:	2502      	movs	r5, #2
     e92:	e7d1      	b.n	e38 <__aeabi_dmul+0x50>
     e94:	4649      	mov	r1, r9
     e96:	2d02      	cmp	r5, #2
     e98:	d06c      	beq.n	f74 <__aeabi_dmul+0x18c>
     e9a:	2d03      	cmp	r5, #3
     e9c:	d100      	bne.n	ea0 <__aeabi_dmul+0xb8>
     e9e:	e217      	b.n	12d0 <__aeabi_dmul+0x4e8>
     ea0:	2d01      	cmp	r5, #1
     ea2:	d000      	beq.n	ea6 <__aeabi_dmul+0xbe>
     ea4:	e158      	b.n	1158 <__aeabi_dmul+0x370>
     ea6:	400d      	ands	r5, r1
     ea8:	b2ed      	uxtb	r5, r5
     eaa:	2400      	movs	r4, #0
     eac:	46a9      	mov	r9, r5
     eae:	2300      	movs	r3, #0
     eb0:	46a0      	mov	r8, r4
     eb2:	2000      	movs	r0, #0
     eb4:	2100      	movs	r1, #0
     eb6:	0325      	lsls	r5, r4, #12
     eb8:	0d0a      	lsrs	r2, r1, #20
     eba:	051c      	lsls	r4, r3, #20
     ebc:	0b2d      	lsrs	r5, r5, #12
     ebe:	0512      	lsls	r2, r2, #20
     ec0:	4b40      	ldr	r3, [pc, #256]	; (fc4 <__aeabi_dmul+0x1dc>)
     ec2:	432a      	orrs	r2, r5
     ec4:	4013      	ands	r3, r2
     ec6:	4323      	orrs	r3, r4
     ec8:	005b      	lsls	r3, r3, #1
     eca:	464c      	mov	r4, r9
     ecc:	085b      	lsrs	r3, r3, #1
     ece:	07e2      	lsls	r2, r4, #31
     ed0:	1c19      	adds	r1, r3, #0
     ed2:	4640      	mov	r0, r8
     ed4:	4311      	orrs	r1, r2
     ed6:	b007      	add	sp, #28
     ed8:	bc3c      	pop	{r2, r3, r4, r5}
     eda:	4690      	mov	r8, r2
     edc:	4699      	mov	r9, r3
     ede:	46a2      	mov	sl, r4
     ee0:	46ab      	mov	fp, r5
     ee2:	bdf0      	pop	{r4, r5, r6, r7, pc}
     ee4:	4653      	mov	r3, sl
     ee6:	4323      	orrs	r3, r4
     ee8:	d050      	beq.n	f8c <__aeabi_dmul+0x1a4>
     eea:	4653      	mov	r3, sl
     eec:	2b00      	cmp	r3, #0
     eee:	d100      	bne.n	ef2 <__aeabi_dmul+0x10a>
     ef0:	e184      	b.n	11fc <__aeabi_dmul+0x414>
     ef2:	4650      	mov	r0, sl
     ef4:	f000 fda4 	bl	1a40 <__clzsi2>
     ef8:	1e03      	subs	r3, r0, #0
     efa:	2b27      	cmp	r3, #39	; 0x27
     efc:	dd00      	ble.n	f00 <__aeabi_dmul+0x118>
     efe:	e176      	b.n	11ee <__aeabi_dmul+0x406>
     f00:	2128      	movs	r1, #40	; 0x28
     f02:	1a0d      	subs	r5, r1, r0
     f04:	1c21      	adds	r1, r4, #0
     f06:	3b08      	subs	r3, #8
     f08:	4652      	mov	r2, sl
     f0a:	40e9      	lsrs	r1, r5
     f0c:	409a      	lsls	r2, r3
     f0e:	1c0d      	adds	r5, r1, #0
     f10:	4315      	orrs	r5, r2
     f12:	1c22      	adds	r2, r4, #0
     f14:	409a      	lsls	r2, r3
     f16:	46aa      	mov	sl, r5
     f18:	4690      	mov	r8, r2
     f1a:	4b2b      	ldr	r3, [pc, #172]	; (fc8 <__aeabi_dmul+0x1e0>)
     f1c:	2400      	movs	r4, #0
     f1e:	1a1b      	subs	r3, r3, r0
     f20:	9302      	str	r3, [sp, #8]
     f22:	2500      	movs	r5, #0
     f24:	e788      	b.n	e38 <__aeabi_dmul+0x50>
     f26:	465b      	mov	r3, fp
     f28:	431e      	orrs	r6, r3
     f2a:	2303      	movs	r3, #3
     f2c:	2e00      	cmp	r6, #0
     f2e:	d19c      	bne.n	e6a <__aeabi_dmul+0x82>
     f30:	46b3      	mov	fp, r6
     f32:	2200      	movs	r2, #0
     f34:	2302      	movs	r3, #2
     f36:	e798      	b.n	e6a <__aeabi_dmul+0x82>
     f38:	465b      	mov	r3, fp
     f3a:	4333      	orrs	r3, r6
     f3c:	d021      	beq.n	f82 <__aeabi_dmul+0x19a>
     f3e:	4658      	mov	r0, fp
     f40:	2800      	cmp	r0, #0
     f42:	d100      	bne.n	f46 <__aeabi_dmul+0x15e>
     f44:	e14e      	b.n	11e4 <__aeabi_dmul+0x3fc>
     f46:	f000 fd7b 	bl	1a40 <__clzsi2>
     f4a:	2827      	cmp	r0, #39	; 0x27
     f4c:	dd00      	ble.n	f50 <__aeabi_dmul+0x168>
     f4e:	e142      	b.n	11d6 <__aeabi_dmul+0x3ee>
     f50:	2128      	movs	r1, #40	; 0x28
     f52:	1a0f      	subs	r7, r1, r0
     f54:	1c02      	adds	r2, r0, #0
     f56:	1c31      	adds	r1, r6, #0
     f58:	3a08      	subs	r2, #8
     f5a:	465b      	mov	r3, fp
     f5c:	40f9      	lsrs	r1, r7
     f5e:	4093      	lsls	r3, r2
     f60:	1c0f      	adds	r7, r1, #0
     f62:	431f      	orrs	r7, r3
     f64:	1c33      	adds	r3, r6, #0
     f66:	4093      	lsls	r3, r2
     f68:	46bb      	mov	fp, r7
     f6a:	1c1a      	adds	r2, r3, #0
     f6c:	4b16      	ldr	r3, [pc, #88]	; (fc8 <__aeabi_dmul+0x1e0>)
     f6e:	1a18      	subs	r0, r3, r0
     f70:	2300      	movs	r3, #0
     f72:	e77a      	b.n	e6a <__aeabi_dmul+0x82>
     f74:	2301      	movs	r3, #1
     f76:	400b      	ands	r3, r1
     f78:	2400      	movs	r4, #0
     f7a:	4699      	mov	r9, r3
     f7c:	46a0      	mov	r8, r4
     f7e:	4b0e      	ldr	r3, [pc, #56]	; (fb8 <__aeabi_dmul+0x1d0>)
     f80:	e797      	b.n	eb2 <__aeabi_dmul+0xca>
     f82:	2700      	movs	r7, #0
     f84:	46bb      	mov	fp, r7
     f86:	2200      	movs	r2, #0
     f88:	2301      	movs	r3, #1
     f8a:	e76e      	b.n	e6a <__aeabi_dmul+0x82>
     f8c:	2100      	movs	r1, #0
     f8e:	2404      	movs	r4, #4
     f90:	468a      	mov	sl, r1
     f92:	4688      	mov	r8, r1
     f94:	2501      	movs	r5, #1
     f96:	e74f      	b.n	e38 <__aeabi_dmul+0x50>
     f98:	240c      	movs	r4, #12
     f9a:	2503      	movs	r5, #3
     f9c:	e74c      	b.n	e38 <__aeabi_dmul+0x50>
     f9e:	2500      	movs	r5, #0
     fa0:	2480      	movs	r4, #128	; 0x80
     fa2:	46a9      	mov	r9, r5
     fa4:	0324      	lsls	r4, r4, #12
     fa6:	46a8      	mov	r8, r5
     fa8:	4b03      	ldr	r3, [pc, #12]	; (fb8 <__aeabi_dmul+0x1d0>)
     faa:	e782      	b.n	eb2 <__aeabi_dmul+0xca>
     fac:	46da      	mov	sl, fp
     fae:	4690      	mov	r8, r2
     fb0:	9903      	ldr	r1, [sp, #12]
     fb2:	1c1d      	adds	r5, r3, #0
     fb4:	e76f      	b.n	e96 <__aeabi_dmul+0xae>
     fb6:	46c0      	nop			; (mov r8, r8)
     fb8:	000007ff 	.word	0x000007ff
     fbc:	fffffc01 	.word	0xfffffc01
     fc0:	00003fc0 	.word	0x00003fc0
     fc4:	800fffff 	.word	0x800fffff
     fc8:	fffffc0d 	.word	0xfffffc0d
     fcc:	9f02      	ldr	r7, [sp, #8]
     fce:	0c16      	lsrs	r6, r2, #16
     fd0:	1838      	adds	r0, r7, r0
     fd2:	9004      	str	r0, [sp, #16]
     fd4:	4640      	mov	r0, r8
     fd6:	0c07      	lsrs	r7, r0, #16
     fd8:	0400      	lsls	r0, r0, #16
     fda:	0c00      	lsrs	r0, r0, #16
     fdc:	0412      	lsls	r2, r2, #16
     fde:	0c12      	lsrs	r2, r2, #16
     fe0:	1c03      	adds	r3, r0, #0
     fe2:	4353      	muls	r3, r2
     fe4:	1c04      	adds	r4, r0, #0
     fe6:	1c3d      	adds	r5, r7, #0
     fe8:	4374      	muls	r4, r6
     fea:	4355      	muls	r5, r2
     fec:	4698      	mov	r8, r3
     fee:	1c3b      	adds	r3, r7, #0
     ff0:	4373      	muls	r3, r6
     ff2:	1964      	adds	r4, r4, r5
     ff4:	46a4      	mov	ip, r4
     ff6:	4644      	mov	r4, r8
     ff8:	9302      	str	r3, [sp, #8]
     ffa:	0c23      	lsrs	r3, r4, #16
     ffc:	4463      	add	r3, ip
     ffe:	429d      	cmp	r5, r3
    1000:	d904      	bls.n	100c <__aeabi_dmul+0x224>
    1002:	9d02      	ldr	r5, [sp, #8]
    1004:	2480      	movs	r4, #128	; 0x80
    1006:	0264      	lsls	r4, r4, #9
    1008:	192d      	adds	r5, r5, r4
    100a:	9502      	str	r5, [sp, #8]
    100c:	0c1d      	lsrs	r5, r3, #16
    100e:	9503      	str	r5, [sp, #12]
    1010:	4645      	mov	r5, r8
    1012:	042c      	lsls	r4, r5, #16
    1014:	041b      	lsls	r3, r3, #16
    1016:	0c24      	lsrs	r4, r4, #16
    1018:	191c      	adds	r4, r3, r4
    101a:	9405      	str	r4, [sp, #20]
    101c:	465c      	mov	r4, fp
    101e:	0c23      	lsrs	r3, r4, #16
    1020:	1c05      	adds	r5, r0, #0
    1022:	4358      	muls	r0, r3
    1024:	0424      	lsls	r4, r4, #16
    1026:	0c24      	lsrs	r4, r4, #16
    1028:	4684      	mov	ip, r0
    102a:	1c38      	adds	r0, r7, #0
    102c:	4360      	muls	r0, r4
    102e:	4365      	muls	r5, r4
    1030:	435f      	muls	r7, r3
    1032:	4681      	mov	r9, r0
    1034:	44cc      	add	ip, r9
    1036:	0c28      	lsrs	r0, r5, #16
    1038:	4460      	add	r0, ip
    103a:	46bb      	mov	fp, r7
    103c:	4581      	cmp	r9, r0
    103e:	d902      	bls.n	1046 <__aeabi_dmul+0x25e>
    1040:	2780      	movs	r7, #128	; 0x80
    1042:	027f      	lsls	r7, r7, #9
    1044:	44bb      	add	fp, r7
    1046:	042d      	lsls	r5, r5, #16
    1048:	0c07      	lsrs	r7, r0, #16
    104a:	0c2d      	lsrs	r5, r5, #16
    104c:	0400      	lsls	r0, r0, #16
    104e:	1940      	adds	r0, r0, r5
    1050:	4655      	mov	r5, sl
    1052:	46bc      	mov	ip, r7
    1054:	042f      	lsls	r7, r5, #16
    1056:	44e3      	add	fp, ip
    1058:	4684      	mov	ip, r0
    105a:	0c28      	lsrs	r0, r5, #16
    105c:	0c3d      	lsrs	r5, r7, #16
    105e:	1c2f      	adds	r7, r5, #0
    1060:	4357      	muls	r7, r2
    1062:	46b8      	mov	r8, r7
    1064:	1c2f      	adds	r7, r5, #0
    1066:	4377      	muls	r7, r6
    1068:	4342      	muls	r2, r0
    106a:	46b9      	mov	r9, r7
    106c:	4647      	mov	r7, r8
    106e:	0c3f      	lsrs	r7, r7, #16
    1070:	4491      	add	r9, r2
    1072:	46ba      	mov	sl, r7
    1074:	44d1      	add	r9, sl
    1076:	4346      	muls	r6, r0
    1078:	454a      	cmp	r2, r9
    107a:	d902      	bls.n	1082 <__aeabi_dmul+0x29a>
    107c:	2280      	movs	r2, #128	; 0x80
    107e:	0252      	lsls	r2, r2, #9
    1080:	18b6      	adds	r6, r6, r2
    1082:	464f      	mov	r7, r9
    1084:	0c3a      	lsrs	r2, r7, #16
    1086:	18b6      	adds	r6, r6, r2
    1088:	043a      	lsls	r2, r7, #16
    108a:	4647      	mov	r7, r8
    108c:	043f      	lsls	r7, r7, #16
    108e:	0c3f      	lsrs	r7, r7, #16
    1090:	46b8      	mov	r8, r7
    1092:	1c2f      	adds	r7, r5, #0
    1094:	4367      	muls	r7, r4
    1096:	435d      	muls	r5, r3
    1098:	4344      	muls	r4, r0
    109a:	4358      	muls	r0, r3
    109c:	1965      	adds	r5, r4, r5
    109e:	9001      	str	r0, [sp, #4]
    10a0:	0c38      	lsrs	r0, r7, #16
    10a2:	182d      	adds	r5, r5, r0
    10a4:	4442      	add	r2, r8
    10a6:	46b8      	mov	r8, r7
    10a8:	42ac      	cmp	r4, r5
    10aa:	d904      	bls.n	10b6 <__aeabi_dmul+0x2ce>
    10ac:	9801      	ldr	r0, [sp, #4]
    10ae:	2380      	movs	r3, #128	; 0x80
    10b0:	025b      	lsls	r3, r3, #9
    10b2:	18c0      	adds	r0, r0, r3
    10b4:	9001      	str	r0, [sp, #4]
    10b6:	9c03      	ldr	r4, [sp, #12]
    10b8:	9f02      	ldr	r7, [sp, #8]
    10ba:	1c20      	adds	r0, r4, #0
    10bc:	4460      	add	r0, ip
    10be:	19c0      	adds	r0, r0, r7
    10c0:	4560      	cmp	r0, ip
    10c2:	41a4      	sbcs	r4, r4
    10c4:	4647      	mov	r7, r8
    10c6:	4264      	negs	r4, r4
    10c8:	46a4      	mov	ip, r4
    10ca:	042b      	lsls	r3, r5, #16
    10cc:	043c      	lsls	r4, r7, #16
    10ce:	4699      	mov	r9, r3
    10d0:	0c24      	lsrs	r4, r4, #16
    10d2:	444c      	add	r4, r9
    10d4:	46a0      	mov	r8, r4
    10d6:	44d8      	add	r8, fp
    10d8:	1880      	adds	r0, r0, r2
    10da:	46c2      	mov	sl, r8
    10dc:	44e2      	add	sl, ip
    10de:	4290      	cmp	r0, r2
    10e0:	4192      	sbcs	r2, r2
    10e2:	4657      	mov	r7, sl
    10e4:	4252      	negs	r2, r2
    10e6:	4691      	mov	r9, r2
    10e8:	19f2      	adds	r2, r6, r7
    10ea:	45e2      	cmp	sl, ip
    10ec:	41bf      	sbcs	r7, r7
    10ee:	427f      	negs	r7, r7
    10f0:	464b      	mov	r3, r9
    10f2:	46bc      	mov	ip, r7
    10f4:	45d8      	cmp	r8, fp
    10f6:	41bf      	sbcs	r7, r7
    10f8:	18d4      	adds	r4, r2, r3
    10fa:	427f      	negs	r7, r7
    10fc:	4663      	mov	r3, ip
    10fe:	431f      	orrs	r7, r3
    1100:	0c2d      	lsrs	r5, r5, #16
    1102:	197f      	adds	r7, r7, r5
    1104:	42b2      	cmp	r2, r6
    1106:	4192      	sbcs	r2, r2
    1108:	454c      	cmp	r4, r9
    110a:	41ad      	sbcs	r5, r5
    110c:	4252      	negs	r2, r2
    110e:	426d      	negs	r5, r5
    1110:	4315      	orrs	r5, r2
    1112:	9e01      	ldr	r6, [sp, #4]
    1114:	197d      	adds	r5, r7, r5
    1116:	19ab      	adds	r3, r5, r6
    1118:	0de2      	lsrs	r2, r4, #23
    111a:	025b      	lsls	r3, r3, #9
    111c:	9f05      	ldr	r7, [sp, #20]
    111e:	4313      	orrs	r3, r2
    1120:	0242      	lsls	r2, r0, #9
    1122:	433a      	orrs	r2, r7
    1124:	469a      	mov	sl, r3
    1126:	1e53      	subs	r3, r2, #1
    1128:	419a      	sbcs	r2, r3
    112a:	0dc3      	lsrs	r3, r0, #23
    112c:	1c10      	adds	r0, r2, #0
    112e:	4318      	orrs	r0, r3
    1130:	0264      	lsls	r4, r4, #9
    1132:	4320      	orrs	r0, r4
    1134:	4680      	mov	r8, r0
    1136:	4650      	mov	r0, sl
    1138:	01c0      	lsls	r0, r0, #7
    113a:	d50d      	bpl.n	1158 <__aeabi_dmul+0x370>
    113c:	4645      	mov	r5, r8
    113e:	2201      	movs	r2, #1
    1140:	4656      	mov	r6, sl
    1142:	9c04      	ldr	r4, [sp, #16]
    1144:	086b      	lsrs	r3, r5, #1
    1146:	402a      	ands	r2, r5
    1148:	431a      	orrs	r2, r3
    114a:	07f3      	lsls	r3, r6, #31
    114c:	3401      	adds	r4, #1
    114e:	431a      	orrs	r2, r3
    1150:	0876      	lsrs	r6, r6, #1
    1152:	9404      	str	r4, [sp, #16]
    1154:	4690      	mov	r8, r2
    1156:	46b2      	mov	sl, r6
    1158:	9e04      	ldr	r6, [sp, #16]
    115a:	4f63      	ldr	r7, [pc, #396]	; (12e8 <__aeabi_dmul+0x500>)
    115c:	19f3      	adds	r3, r6, r7
    115e:	2b00      	cmp	r3, #0
    1160:	dd61      	ble.n	1226 <__aeabi_dmul+0x43e>
    1162:	4640      	mov	r0, r8
    1164:	0740      	lsls	r0, r0, #29
    1166:	d00b      	beq.n	1180 <__aeabi_dmul+0x398>
    1168:	220f      	movs	r2, #15
    116a:	4644      	mov	r4, r8
    116c:	4022      	ands	r2, r4
    116e:	2a04      	cmp	r2, #4
    1170:	d006      	beq.n	1180 <__aeabi_dmul+0x398>
    1172:	4642      	mov	r2, r8
    1174:	3204      	adds	r2, #4
    1176:	4542      	cmp	r2, r8
    1178:	4180      	sbcs	r0, r0
    117a:	4240      	negs	r0, r0
    117c:	4482      	add	sl, r0
    117e:	4690      	mov	r8, r2
    1180:	4655      	mov	r5, sl
    1182:	01ed      	lsls	r5, r5, #7
    1184:	d507      	bpl.n	1196 <__aeabi_dmul+0x3ae>
    1186:	4b59      	ldr	r3, [pc, #356]	; (12ec <__aeabi_dmul+0x504>)
    1188:	4656      	mov	r6, sl
    118a:	9f04      	ldr	r7, [sp, #16]
    118c:	2080      	movs	r0, #128	; 0x80
    118e:	401e      	ands	r6, r3
    1190:	00c0      	lsls	r0, r0, #3
    1192:	46b2      	mov	sl, r6
    1194:	183b      	adds	r3, r7, r0
    1196:	4a56      	ldr	r2, [pc, #344]	; (12f0 <__aeabi_dmul+0x508>)
    1198:	4293      	cmp	r3, r2
    119a:	dd00      	ble.n	119e <__aeabi_dmul+0x3b6>
    119c:	e6ea      	b.n	f74 <__aeabi_dmul+0x18c>
    119e:	4644      	mov	r4, r8
    11a0:	4655      	mov	r5, sl
    11a2:	08e2      	lsrs	r2, r4, #3
    11a4:	0768      	lsls	r0, r5, #29
    11a6:	4310      	orrs	r0, r2
    11a8:	2201      	movs	r2, #1
    11aa:	026c      	lsls	r4, r5, #9
    11ac:	055b      	lsls	r3, r3, #21
    11ae:	400a      	ands	r2, r1
    11b0:	4680      	mov	r8, r0
    11b2:	0b24      	lsrs	r4, r4, #12
    11b4:	0d5b      	lsrs	r3, r3, #21
    11b6:	4691      	mov	r9, r2
    11b8:	e67b      	b.n	eb2 <__aeabi_dmul+0xca>
    11ba:	46da      	mov	sl, fp
    11bc:	4690      	mov	r8, r2
    11be:	1c1d      	adds	r5, r3, #0
    11c0:	e669      	b.n	e96 <__aeabi_dmul+0xae>
    11c2:	2480      	movs	r4, #128	; 0x80
    11c4:	0324      	lsls	r4, r4, #12
    11c6:	4657      	mov	r7, sl
    11c8:	4227      	tst	r7, r4
    11ca:	d11c      	bne.n	1206 <__aeabi_dmul+0x41e>
    11cc:	433c      	orrs	r4, r7
    11ce:	0324      	lsls	r4, r4, #12
    11d0:	0b24      	lsrs	r4, r4, #12
    11d2:	4b48      	ldr	r3, [pc, #288]	; (12f4 <__aeabi_dmul+0x50c>)
    11d4:	e66d      	b.n	eb2 <__aeabi_dmul+0xca>
    11d6:	1c03      	adds	r3, r0, #0
    11d8:	3b28      	subs	r3, #40	; 0x28
    11da:	1c31      	adds	r1, r6, #0
    11dc:	4099      	lsls	r1, r3
    11de:	468b      	mov	fp, r1
    11e0:	2200      	movs	r2, #0
    11e2:	e6c3      	b.n	f6c <__aeabi_dmul+0x184>
    11e4:	1c30      	adds	r0, r6, #0
    11e6:	f000 fc2b 	bl	1a40 <__clzsi2>
    11ea:	3020      	adds	r0, #32
    11ec:	e6ad      	b.n	f4a <__aeabi_dmul+0x162>
    11ee:	3b28      	subs	r3, #40	; 0x28
    11f0:	1c21      	adds	r1, r4, #0
    11f2:	4099      	lsls	r1, r3
    11f4:	2200      	movs	r2, #0
    11f6:	468a      	mov	sl, r1
    11f8:	4690      	mov	r8, r2
    11fa:	e68e      	b.n	f1a <__aeabi_dmul+0x132>
    11fc:	1c20      	adds	r0, r4, #0
    11fe:	f000 fc1f 	bl	1a40 <__clzsi2>
    1202:	3020      	adds	r0, #32
    1204:	e678      	b.n	ef8 <__aeabi_dmul+0x110>
    1206:	4658      	mov	r0, fp
    1208:	4220      	tst	r0, r4
    120a:	d107      	bne.n	121c <__aeabi_dmul+0x434>
    120c:	4304      	orrs	r4, r0
    120e:	9903      	ldr	r1, [sp, #12]
    1210:	0324      	lsls	r4, r4, #12
    1212:	0b24      	lsrs	r4, r4, #12
    1214:	4689      	mov	r9, r1
    1216:	4690      	mov	r8, r2
    1218:	4b36      	ldr	r3, [pc, #216]	; (12f4 <__aeabi_dmul+0x50c>)
    121a:	e64a      	b.n	eb2 <__aeabi_dmul+0xca>
    121c:	433c      	orrs	r4, r7
    121e:	0324      	lsls	r4, r4, #12
    1220:	0b24      	lsrs	r4, r4, #12
    1222:	4b34      	ldr	r3, [pc, #208]	; (12f4 <__aeabi_dmul+0x50c>)
    1224:	e645      	b.n	eb2 <__aeabi_dmul+0xca>
    1226:	4b34      	ldr	r3, [pc, #208]	; (12f8 <__aeabi_dmul+0x510>)
    1228:	9e04      	ldr	r6, [sp, #16]
    122a:	1b9b      	subs	r3, r3, r6
    122c:	2b38      	cmp	r3, #56	; 0x38
    122e:	dd06      	ble.n	123e <__aeabi_dmul+0x456>
    1230:	2301      	movs	r3, #1
    1232:	400b      	ands	r3, r1
    1234:	2400      	movs	r4, #0
    1236:	4699      	mov	r9, r3
    1238:	46a0      	mov	r8, r4
    123a:	2300      	movs	r3, #0
    123c:	e639      	b.n	eb2 <__aeabi_dmul+0xca>
    123e:	2b1f      	cmp	r3, #31
    1240:	dc25      	bgt.n	128e <__aeabi_dmul+0x4a6>
    1242:	9c04      	ldr	r4, [sp, #16]
    1244:	4d2d      	ldr	r5, [pc, #180]	; (12fc <__aeabi_dmul+0x514>)
    1246:	4646      	mov	r6, r8
    1248:	1960      	adds	r0, r4, r5
    124a:	4652      	mov	r2, sl
    124c:	4644      	mov	r4, r8
    124e:	4086      	lsls	r6, r0
    1250:	40dc      	lsrs	r4, r3
    1252:	4082      	lsls	r2, r0
    1254:	4657      	mov	r7, sl
    1256:	1c30      	adds	r0, r6, #0
    1258:	4322      	orrs	r2, r4
    125a:	40df      	lsrs	r7, r3
    125c:	1e44      	subs	r4, r0, #1
    125e:	41a0      	sbcs	r0, r4
    1260:	4302      	orrs	r2, r0
    1262:	1c3b      	adds	r3, r7, #0
    1264:	0754      	lsls	r4, r2, #29
    1266:	d009      	beq.n	127c <__aeabi_dmul+0x494>
    1268:	200f      	movs	r0, #15
    126a:	4010      	ands	r0, r2
    126c:	2804      	cmp	r0, #4
    126e:	d005      	beq.n	127c <__aeabi_dmul+0x494>
    1270:	1d10      	adds	r0, r2, #4
    1272:	4290      	cmp	r0, r2
    1274:	4192      	sbcs	r2, r2
    1276:	4252      	negs	r2, r2
    1278:	189b      	adds	r3, r3, r2
    127a:	1c02      	adds	r2, r0, #0
    127c:	021d      	lsls	r5, r3, #8
    127e:	d51a      	bpl.n	12b6 <__aeabi_dmul+0x4ce>
    1280:	2301      	movs	r3, #1
    1282:	400b      	ands	r3, r1
    1284:	2400      	movs	r4, #0
    1286:	4699      	mov	r9, r3
    1288:	46a0      	mov	r8, r4
    128a:	2301      	movs	r3, #1
    128c:	e611      	b.n	eb2 <__aeabi_dmul+0xca>
    128e:	481c      	ldr	r0, [pc, #112]	; (1300 <__aeabi_dmul+0x518>)
    1290:	9c04      	ldr	r4, [sp, #16]
    1292:	4655      	mov	r5, sl
    1294:	1b00      	subs	r0, r0, r4
    1296:	40c5      	lsrs	r5, r0
    1298:	1c28      	adds	r0, r5, #0
    129a:	2b20      	cmp	r3, #32
    129c:	d016      	beq.n	12cc <__aeabi_dmul+0x4e4>
    129e:	4e19      	ldr	r6, [pc, #100]	; (1304 <__aeabi_dmul+0x51c>)
    12a0:	4657      	mov	r7, sl
    12a2:	19a2      	adds	r2, r4, r6
    12a4:	4097      	lsls	r7, r2
    12a6:	1c3a      	adds	r2, r7, #0
    12a8:	4643      	mov	r3, r8
    12aa:	431a      	orrs	r2, r3
    12ac:	1e53      	subs	r3, r2, #1
    12ae:	419a      	sbcs	r2, r3
    12b0:	4302      	orrs	r2, r0
    12b2:	2300      	movs	r3, #0
    12b4:	e7d6      	b.n	1264 <__aeabi_dmul+0x47c>
    12b6:	0758      	lsls	r0, r3, #29
    12b8:	025b      	lsls	r3, r3, #9
    12ba:	08d2      	lsrs	r2, r2, #3
    12bc:	0b1c      	lsrs	r4, r3, #12
    12be:	2301      	movs	r3, #1
    12c0:	400b      	ands	r3, r1
    12c2:	4310      	orrs	r0, r2
    12c4:	4699      	mov	r9, r3
    12c6:	4680      	mov	r8, r0
    12c8:	2300      	movs	r3, #0
    12ca:	e5f2      	b.n	eb2 <__aeabi_dmul+0xca>
    12cc:	2200      	movs	r2, #0
    12ce:	e7eb      	b.n	12a8 <__aeabi_dmul+0x4c0>
    12d0:	2480      	movs	r4, #128	; 0x80
    12d2:	0324      	lsls	r4, r4, #12
    12d4:	4650      	mov	r0, sl
    12d6:	2301      	movs	r3, #1
    12d8:	4304      	orrs	r4, r0
    12da:	4019      	ands	r1, r3
    12dc:	0324      	lsls	r4, r4, #12
    12de:	0b24      	lsrs	r4, r4, #12
    12e0:	4689      	mov	r9, r1
    12e2:	4b04      	ldr	r3, [pc, #16]	; (12f4 <__aeabi_dmul+0x50c>)
    12e4:	e5e5      	b.n	eb2 <__aeabi_dmul+0xca>
    12e6:	46c0      	nop			; (mov r8, r8)
    12e8:	000003ff 	.word	0x000003ff
    12ec:	feffffff 	.word	0xfeffffff
    12f0:	000007fe 	.word	0x000007fe
    12f4:	000007ff 	.word	0x000007ff
    12f8:	fffffc02 	.word	0xfffffc02
    12fc:	0000041e 	.word	0x0000041e
    1300:	fffffbe2 	.word	0xfffffbe2
    1304:	0000043e 	.word	0x0000043e

00001308 <__aeabi_dsub>:
__aeabi_dsub():
    1308:	b5f8      	push	{r3, r4, r5, r6, r7, lr}
    130a:	465f      	mov	r7, fp
    130c:	4656      	mov	r6, sl
    130e:	4644      	mov	r4, r8
    1310:	464d      	mov	r5, r9
    1312:	b4f0      	push	{r4, r5, r6, r7}
    1314:	030c      	lsls	r4, r1, #12
    1316:	004d      	lsls	r5, r1, #1
    1318:	0fcf      	lsrs	r7, r1, #31
    131a:	0a61      	lsrs	r1, r4, #9
    131c:	0f44      	lsrs	r4, r0, #29
    131e:	4321      	orrs	r1, r4
    1320:	00c4      	lsls	r4, r0, #3
    1322:	0318      	lsls	r0, r3, #12
    1324:	0fde      	lsrs	r6, r3, #31
    1326:	4680      	mov	r8, r0
    1328:	46b4      	mov	ip, r6
    132a:	4646      	mov	r6, r8
    132c:	0058      	lsls	r0, r3, #1
    132e:	0a76      	lsrs	r6, r6, #9
    1330:	0f53      	lsrs	r3, r2, #29
    1332:	4333      	orrs	r3, r6
    1334:	00d6      	lsls	r6, r2, #3
    1336:	4ad1      	ldr	r2, [pc, #836]	; (167c <__aeabi_dsub+0x374>)
    1338:	0d6d      	lsrs	r5, r5, #21
    133a:	46ba      	mov	sl, r7
    133c:	0d40      	lsrs	r0, r0, #21
    133e:	46b3      	mov	fp, r6
    1340:	4290      	cmp	r0, r2
    1342:	d100      	bne.n	1346 <__aeabi_dsub+0x3e>
    1344:	e0f5      	b.n	1532 <__aeabi_dsub+0x22a>
    1346:	4662      	mov	r2, ip
    1348:	2601      	movs	r6, #1
    134a:	4072      	eors	r2, r6
    134c:	4694      	mov	ip, r2
    134e:	4567      	cmp	r7, ip
    1350:	d100      	bne.n	1354 <__aeabi_dsub+0x4c>
    1352:	e0ab      	b.n	14ac <__aeabi_dsub+0x1a4>
    1354:	1a2f      	subs	r7, r5, r0
    1356:	2f00      	cmp	r7, #0
    1358:	dc00      	bgt.n	135c <__aeabi_dsub+0x54>
    135a:	e111      	b.n	1580 <__aeabi_dsub+0x278>
    135c:	2800      	cmp	r0, #0
    135e:	d13e      	bne.n	13de <__aeabi_dsub+0xd6>
    1360:	4658      	mov	r0, fp
    1362:	4318      	orrs	r0, r3
    1364:	d000      	beq.n	1368 <__aeabi_dsub+0x60>
    1366:	e0f1      	b.n	154c <__aeabi_dsub+0x244>
    1368:	0760      	lsls	r0, r4, #29
    136a:	d100      	bne.n	136e <__aeabi_dsub+0x66>
    136c:	e097      	b.n	149e <__aeabi_dsub+0x196>
    136e:	230f      	movs	r3, #15
    1370:	4023      	ands	r3, r4
    1372:	2b04      	cmp	r3, #4
    1374:	d100      	bne.n	1378 <__aeabi_dsub+0x70>
    1376:	e122      	b.n	15be <__aeabi_dsub+0x2b6>
    1378:	1d22      	adds	r2, r4, #4
    137a:	42a2      	cmp	r2, r4
    137c:	41a4      	sbcs	r4, r4
    137e:	4264      	negs	r4, r4
    1380:	2380      	movs	r3, #128	; 0x80
    1382:	1909      	adds	r1, r1, r4
    1384:	041b      	lsls	r3, r3, #16
    1386:	2701      	movs	r7, #1
    1388:	4650      	mov	r0, sl
    138a:	400b      	ands	r3, r1
    138c:	4007      	ands	r7, r0
    138e:	1c14      	adds	r4, r2, #0
    1390:	2b00      	cmp	r3, #0
    1392:	d100      	bne.n	1396 <__aeabi_dsub+0x8e>
    1394:	e079      	b.n	148a <__aeabi_dsub+0x182>
    1396:	4bb9      	ldr	r3, [pc, #740]	; (167c <__aeabi_dsub+0x374>)
    1398:	3501      	adds	r5, #1
    139a:	429d      	cmp	r5, r3
    139c:	d100      	bne.n	13a0 <__aeabi_dsub+0x98>
    139e:	e10b      	b.n	15b8 <__aeabi_dsub+0x2b0>
    13a0:	4bb7      	ldr	r3, [pc, #732]	; (1680 <__aeabi_dsub+0x378>)
    13a2:	08e4      	lsrs	r4, r4, #3
    13a4:	4019      	ands	r1, r3
    13a6:	0748      	lsls	r0, r1, #29
    13a8:	0249      	lsls	r1, r1, #9
    13aa:	4304      	orrs	r4, r0
    13ac:	0b0b      	lsrs	r3, r1, #12
    13ae:	2000      	movs	r0, #0
    13b0:	2100      	movs	r1, #0
    13b2:	031b      	lsls	r3, r3, #12
    13b4:	0b1a      	lsrs	r2, r3, #12
    13b6:	0d0b      	lsrs	r3, r1, #20
    13b8:	056d      	lsls	r5, r5, #21
    13ba:	051b      	lsls	r3, r3, #20
    13bc:	4313      	orrs	r3, r2
    13be:	086a      	lsrs	r2, r5, #1
    13c0:	4db0      	ldr	r5, [pc, #704]	; (1684 <__aeabi_dsub+0x37c>)
    13c2:	07ff      	lsls	r7, r7, #31
    13c4:	401d      	ands	r5, r3
    13c6:	4315      	orrs	r5, r2
    13c8:	006d      	lsls	r5, r5, #1
    13ca:	086d      	lsrs	r5, r5, #1
    13cc:	1c29      	adds	r1, r5, #0
    13ce:	4339      	orrs	r1, r7
    13d0:	1c20      	adds	r0, r4, #0
    13d2:	bc3c      	pop	{r2, r3, r4, r5}
    13d4:	4690      	mov	r8, r2
    13d6:	4699      	mov	r9, r3
    13d8:	46a2      	mov	sl, r4
    13da:	46ab      	mov	fp, r5
    13dc:	bdf8      	pop	{r3, r4, r5, r6, r7, pc}
    13de:	48a7      	ldr	r0, [pc, #668]	; (167c <__aeabi_dsub+0x374>)
    13e0:	4285      	cmp	r5, r0
    13e2:	d0c1      	beq.n	1368 <__aeabi_dsub+0x60>
    13e4:	2080      	movs	r0, #128	; 0x80
    13e6:	0400      	lsls	r0, r0, #16
    13e8:	4303      	orrs	r3, r0
    13ea:	2f38      	cmp	r7, #56	; 0x38
    13ec:	dd00      	ble.n	13f0 <__aeabi_dsub+0xe8>
    13ee:	e0fd      	b.n	15ec <__aeabi_dsub+0x2e4>
    13f0:	2f1f      	cmp	r7, #31
    13f2:	dd00      	ble.n	13f6 <__aeabi_dsub+0xee>
    13f4:	e131      	b.n	165a <__aeabi_dsub+0x352>
    13f6:	2020      	movs	r0, #32
    13f8:	1bc0      	subs	r0, r0, r7
    13fa:	1c1a      	adds	r2, r3, #0
    13fc:	465e      	mov	r6, fp
    13fe:	4082      	lsls	r2, r0
    1400:	40fe      	lsrs	r6, r7
    1402:	4332      	orrs	r2, r6
    1404:	4694      	mov	ip, r2
    1406:	465a      	mov	r2, fp
    1408:	4082      	lsls	r2, r0
    140a:	1c10      	adds	r0, r2, #0
    140c:	1e42      	subs	r2, r0, #1
    140e:	4190      	sbcs	r0, r2
    1410:	40fb      	lsrs	r3, r7
    1412:	4662      	mov	r2, ip
    1414:	4302      	orrs	r2, r0
    1416:	1c1f      	adds	r7, r3, #0
    1418:	1aa2      	subs	r2, r4, r2
    141a:	4294      	cmp	r4, r2
    141c:	41a4      	sbcs	r4, r4
    141e:	4264      	negs	r4, r4
    1420:	1bc9      	subs	r1, r1, r7
    1422:	1b09      	subs	r1, r1, r4
    1424:	1c14      	adds	r4, r2, #0
    1426:	020a      	lsls	r2, r1, #8
    1428:	d59e      	bpl.n	1368 <__aeabi_dsub+0x60>
    142a:	0249      	lsls	r1, r1, #9
    142c:	0a4f      	lsrs	r7, r1, #9
    142e:	2f00      	cmp	r7, #0
    1430:	d100      	bne.n	1434 <__aeabi_dsub+0x12c>
    1432:	e0d6      	b.n	15e2 <__aeabi_dsub+0x2da>
    1434:	1c38      	adds	r0, r7, #0
    1436:	f000 fb03 	bl	1a40 <__clzsi2>
    143a:	1c02      	adds	r2, r0, #0
    143c:	3a08      	subs	r2, #8
    143e:	2a1f      	cmp	r2, #31
    1440:	dd00      	ble.n	1444 <__aeabi_dsub+0x13c>
    1442:	e0c3      	b.n	15cc <__aeabi_dsub+0x2c4>
    1444:	2128      	movs	r1, #40	; 0x28
    1446:	1c23      	adds	r3, r4, #0
    1448:	1a09      	subs	r1, r1, r0
    144a:	4097      	lsls	r7, r2
    144c:	40cb      	lsrs	r3, r1
    144e:	431f      	orrs	r7, r3
    1450:	4094      	lsls	r4, r2
    1452:	4295      	cmp	r5, r2
    1454:	dd00      	ble.n	1458 <__aeabi_dsub+0x150>
    1456:	e0c0      	b.n	15da <__aeabi_dsub+0x2d2>
    1458:	1b55      	subs	r5, r2, r5
    145a:	1c69      	adds	r1, r5, #1
    145c:	291f      	cmp	r1, #31
    145e:	dd00      	ble.n	1462 <__aeabi_dsub+0x15a>
    1460:	e0ea      	b.n	1638 <__aeabi_dsub+0x330>
    1462:	221f      	movs	r2, #31
    1464:	1b55      	subs	r5, r2, r5
    1466:	1c3b      	adds	r3, r7, #0
    1468:	1c22      	adds	r2, r4, #0
    146a:	40ab      	lsls	r3, r5
    146c:	40ca      	lsrs	r2, r1
    146e:	40ac      	lsls	r4, r5
    1470:	1e65      	subs	r5, r4, #1
    1472:	41ac      	sbcs	r4, r5
    1474:	4313      	orrs	r3, r2
    1476:	40cf      	lsrs	r7, r1
    1478:	431c      	orrs	r4, r3
    147a:	1c39      	adds	r1, r7, #0
    147c:	2500      	movs	r5, #0
    147e:	e773      	b.n	1368 <__aeabi_dsub+0x60>
    1480:	2180      	movs	r1, #128	; 0x80
    1482:	4d7e      	ldr	r5, [pc, #504]	; (167c <__aeabi_dsub+0x374>)
    1484:	2700      	movs	r7, #0
    1486:	03c9      	lsls	r1, r1, #15
    1488:	2400      	movs	r4, #0
    148a:	4b7c      	ldr	r3, [pc, #496]	; (167c <__aeabi_dsub+0x374>)
    148c:	0748      	lsls	r0, r1, #29
    148e:	08e4      	lsrs	r4, r4, #3
    1490:	4304      	orrs	r4, r0
    1492:	08c9      	lsrs	r1, r1, #3
    1494:	429d      	cmp	r5, r3
    1496:	d050      	beq.n	153a <__aeabi_dsub+0x232>
    1498:	0309      	lsls	r1, r1, #12
    149a:	0b0b      	lsrs	r3, r1, #12
    149c:	e787      	b.n	13ae <__aeabi_dsub+0xa6>
    149e:	2380      	movs	r3, #128	; 0x80
    14a0:	041b      	lsls	r3, r3, #16
    14a2:	2701      	movs	r7, #1
    14a4:	4652      	mov	r2, sl
    14a6:	400b      	ands	r3, r1
    14a8:	4017      	ands	r7, r2
    14aa:	e771      	b.n	1390 <__aeabi_dsub+0x88>
    14ac:	1a2a      	subs	r2, r5, r0
    14ae:	4694      	mov	ip, r2
    14b0:	2a00      	cmp	r2, #0
    14b2:	dc00      	bgt.n	14b6 <__aeabi_dsub+0x1ae>
    14b4:	e0a1      	b.n	15fa <__aeabi_dsub+0x2f2>
    14b6:	2800      	cmp	r0, #0
    14b8:	d054      	beq.n	1564 <__aeabi_dsub+0x25c>
    14ba:	4870      	ldr	r0, [pc, #448]	; (167c <__aeabi_dsub+0x374>)
    14bc:	4285      	cmp	r5, r0
    14be:	d100      	bne.n	14c2 <__aeabi_dsub+0x1ba>
    14c0:	e752      	b.n	1368 <__aeabi_dsub+0x60>
    14c2:	2080      	movs	r0, #128	; 0x80
    14c4:	0400      	lsls	r0, r0, #16
    14c6:	4303      	orrs	r3, r0
    14c8:	4660      	mov	r0, ip
    14ca:	2838      	cmp	r0, #56	; 0x38
    14cc:	dd00      	ble.n	14d0 <__aeabi_dsub+0x1c8>
    14ce:	e10e      	b.n	16ee <__aeabi_dsub+0x3e6>
    14d0:	281f      	cmp	r0, #31
    14d2:	dd00      	ble.n	14d6 <__aeabi_dsub+0x1ce>
    14d4:	e157      	b.n	1786 <__aeabi_dsub+0x47e>
    14d6:	4662      	mov	r2, ip
    14d8:	2020      	movs	r0, #32
    14da:	1a80      	subs	r0, r0, r2
    14dc:	1c1e      	adds	r6, r3, #0
    14de:	4086      	lsls	r6, r0
    14e0:	46b1      	mov	r9, r6
    14e2:	465e      	mov	r6, fp
    14e4:	40d6      	lsrs	r6, r2
    14e6:	464a      	mov	r2, r9
    14e8:	4332      	orrs	r2, r6
    14ea:	465e      	mov	r6, fp
    14ec:	4086      	lsls	r6, r0
    14ee:	4690      	mov	r8, r2
    14f0:	1c30      	adds	r0, r6, #0
    14f2:	1e42      	subs	r2, r0, #1
    14f4:	4190      	sbcs	r0, r2
    14f6:	4642      	mov	r2, r8
    14f8:	4302      	orrs	r2, r0
    14fa:	4660      	mov	r0, ip
    14fc:	40c3      	lsrs	r3, r0
    14fe:	1912      	adds	r2, r2, r4
    1500:	42a2      	cmp	r2, r4
    1502:	41a4      	sbcs	r4, r4
    1504:	4264      	negs	r4, r4
    1506:	1859      	adds	r1, r3, r1
    1508:	1909      	adds	r1, r1, r4
    150a:	1c14      	adds	r4, r2, #0
    150c:	0208      	lsls	r0, r1, #8
    150e:	d400      	bmi.n	1512 <__aeabi_dsub+0x20a>
    1510:	e72a      	b.n	1368 <__aeabi_dsub+0x60>
    1512:	4b5a      	ldr	r3, [pc, #360]	; (167c <__aeabi_dsub+0x374>)
    1514:	3501      	adds	r5, #1
    1516:	429d      	cmp	r5, r3
    1518:	d100      	bne.n	151c <__aeabi_dsub+0x214>
    151a:	e131      	b.n	1780 <__aeabi_dsub+0x478>
    151c:	4b58      	ldr	r3, [pc, #352]	; (1680 <__aeabi_dsub+0x378>)
    151e:	0860      	lsrs	r0, r4, #1
    1520:	4019      	ands	r1, r3
    1522:	2301      	movs	r3, #1
    1524:	4023      	ands	r3, r4
    1526:	1c1c      	adds	r4, r3, #0
    1528:	4304      	orrs	r4, r0
    152a:	07cb      	lsls	r3, r1, #31
    152c:	431c      	orrs	r4, r3
    152e:	0849      	lsrs	r1, r1, #1
    1530:	e71a      	b.n	1368 <__aeabi_dsub+0x60>
    1532:	431e      	orrs	r6, r3
    1534:	d000      	beq.n	1538 <__aeabi_dsub+0x230>
    1536:	e70a      	b.n	134e <__aeabi_dsub+0x46>
    1538:	e705      	b.n	1346 <__aeabi_dsub+0x3e>
    153a:	1c23      	adds	r3, r4, #0
    153c:	430b      	orrs	r3, r1
    153e:	d03b      	beq.n	15b8 <__aeabi_dsub+0x2b0>
    1540:	2380      	movs	r3, #128	; 0x80
    1542:	031b      	lsls	r3, r3, #12
    1544:	430b      	orrs	r3, r1
    1546:	031b      	lsls	r3, r3, #12
    1548:	0b1b      	lsrs	r3, r3, #12
    154a:	e730      	b.n	13ae <__aeabi_dsub+0xa6>
    154c:	3f01      	subs	r7, #1
    154e:	2f00      	cmp	r7, #0
    1550:	d16d      	bne.n	162e <__aeabi_dsub+0x326>
    1552:	465e      	mov	r6, fp
    1554:	1ba2      	subs	r2, r4, r6
    1556:	4294      	cmp	r4, r2
    1558:	41a4      	sbcs	r4, r4
    155a:	4264      	negs	r4, r4
    155c:	1ac9      	subs	r1, r1, r3
    155e:	1b09      	subs	r1, r1, r4
    1560:	1c14      	adds	r4, r2, #0
    1562:	e760      	b.n	1426 <__aeabi_dsub+0x11e>
    1564:	4658      	mov	r0, fp
    1566:	4318      	orrs	r0, r3
    1568:	d100      	bne.n	156c <__aeabi_dsub+0x264>
    156a:	e6fd      	b.n	1368 <__aeabi_dsub+0x60>
    156c:	2601      	movs	r6, #1
    156e:	4276      	negs	r6, r6
    1570:	44b4      	add	ip, r6
    1572:	4660      	mov	r0, ip
    1574:	2800      	cmp	r0, #0
    1576:	d000      	beq.n	157a <__aeabi_dsub+0x272>
    1578:	e0d0      	b.n	171c <__aeabi_dsub+0x414>
    157a:	465e      	mov	r6, fp
    157c:	1932      	adds	r2, r6, r4
    157e:	e7bf      	b.n	1500 <__aeabi_dsub+0x1f8>
    1580:	2f00      	cmp	r7, #0
    1582:	d000      	beq.n	1586 <__aeabi_dsub+0x27e>
    1584:	e080      	b.n	1688 <__aeabi_dsub+0x380>
    1586:	1c68      	adds	r0, r5, #1
    1588:	0540      	lsls	r0, r0, #21
    158a:	0d40      	lsrs	r0, r0, #21
    158c:	2801      	cmp	r0, #1
    158e:	dc00      	bgt.n	1592 <__aeabi_dsub+0x28a>
    1590:	e0e8      	b.n	1764 <__aeabi_dsub+0x45c>
    1592:	465a      	mov	r2, fp
    1594:	1aa2      	subs	r2, r4, r2
    1596:	4294      	cmp	r4, r2
    1598:	41bf      	sbcs	r7, r7
    159a:	1ac8      	subs	r0, r1, r3
    159c:	427f      	negs	r7, r7
    159e:	1bc7      	subs	r7, r0, r7
    15a0:	023e      	lsls	r6, r7, #8
    15a2:	d400      	bmi.n	15a6 <__aeabi_dsub+0x29e>
    15a4:	e098      	b.n	16d8 <__aeabi_dsub+0x3d0>
    15a6:	4658      	mov	r0, fp
    15a8:	1b04      	subs	r4, r0, r4
    15aa:	45a3      	cmp	fp, r4
    15ac:	4192      	sbcs	r2, r2
    15ae:	1a59      	subs	r1, r3, r1
    15b0:	4252      	negs	r2, r2
    15b2:	1a8f      	subs	r7, r1, r2
    15b4:	46e2      	mov	sl, ip
    15b6:	e73a      	b.n	142e <__aeabi_dsub+0x126>
    15b8:	2300      	movs	r3, #0
    15ba:	2400      	movs	r4, #0
    15bc:	e6f7      	b.n	13ae <__aeabi_dsub+0xa6>
    15be:	2380      	movs	r3, #128	; 0x80
    15c0:	041b      	lsls	r3, r3, #16
    15c2:	2701      	movs	r7, #1
    15c4:	4656      	mov	r6, sl
    15c6:	400b      	ands	r3, r1
    15c8:	4037      	ands	r7, r6
    15ca:	e6e1      	b.n	1390 <__aeabi_dsub+0x88>
    15cc:	1c27      	adds	r7, r4, #0
    15ce:	3828      	subs	r0, #40	; 0x28
    15d0:	4087      	lsls	r7, r0
    15d2:	2400      	movs	r4, #0
    15d4:	4295      	cmp	r5, r2
    15d6:	dc00      	bgt.n	15da <__aeabi_dsub+0x2d2>
    15d8:	e73e      	b.n	1458 <__aeabi_dsub+0x150>
    15da:	4929      	ldr	r1, [pc, #164]	; (1680 <__aeabi_dsub+0x378>)
    15dc:	1aad      	subs	r5, r5, r2
    15de:	4039      	ands	r1, r7
    15e0:	e6c2      	b.n	1368 <__aeabi_dsub+0x60>
    15e2:	1c20      	adds	r0, r4, #0
    15e4:	f000 fa2c 	bl	1a40 <__clzsi2>
    15e8:	3020      	adds	r0, #32
    15ea:	e726      	b.n	143a <__aeabi_dsub+0x132>
    15ec:	465a      	mov	r2, fp
    15ee:	431a      	orrs	r2, r3
    15f0:	1e53      	subs	r3, r2, #1
    15f2:	419a      	sbcs	r2, r3
    15f4:	b2d2      	uxtb	r2, r2
    15f6:	2700      	movs	r7, #0
    15f8:	e70e      	b.n	1418 <__aeabi_dsub+0x110>
    15fa:	2a00      	cmp	r2, #0
    15fc:	d000      	beq.n	1600 <__aeabi_dsub+0x2f8>
    15fe:	e0de      	b.n	17be <__aeabi_dsub+0x4b6>
    1600:	1c68      	adds	r0, r5, #1
    1602:	0546      	lsls	r6, r0, #21
    1604:	0d76      	lsrs	r6, r6, #21
    1606:	2e01      	cmp	r6, #1
    1608:	dc00      	bgt.n	160c <__aeabi_dsub+0x304>
    160a:	e090      	b.n	172e <__aeabi_dsub+0x426>
    160c:	4d1b      	ldr	r5, [pc, #108]	; (167c <__aeabi_dsub+0x374>)
    160e:	42a8      	cmp	r0, r5
    1610:	d100      	bne.n	1614 <__aeabi_dsub+0x30c>
    1612:	e0f5      	b.n	1800 <__aeabi_dsub+0x4f8>
    1614:	465e      	mov	r6, fp
    1616:	1932      	adds	r2, r6, r4
    1618:	42a2      	cmp	r2, r4
    161a:	41a4      	sbcs	r4, r4
    161c:	4264      	negs	r4, r4
    161e:	1859      	adds	r1, r3, r1
    1620:	1909      	adds	r1, r1, r4
    1622:	07cc      	lsls	r4, r1, #31
    1624:	0852      	lsrs	r2, r2, #1
    1626:	4314      	orrs	r4, r2
    1628:	0849      	lsrs	r1, r1, #1
    162a:	1c05      	adds	r5, r0, #0
    162c:	e69c      	b.n	1368 <__aeabi_dsub+0x60>
    162e:	4813      	ldr	r0, [pc, #76]	; (167c <__aeabi_dsub+0x374>)
    1630:	4285      	cmp	r5, r0
    1632:	d000      	beq.n	1636 <__aeabi_dsub+0x32e>
    1634:	e6d9      	b.n	13ea <__aeabi_dsub+0xe2>
    1636:	e697      	b.n	1368 <__aeabi_dsub+0x60>
    1638:	1c2b      	adds	r3, r5, #0
    163a:	3b1f      	subs	r3, #31
    163c:	1c3e      	adds	r6, r7, #0
    163e:	40de      	lsrs	r6, r3
    1640:	1c33      	adds	r3, r6, #0
    1642:	2920      	cmp	r1, #32
    1644:	d06f      	beq.n	1726 <__aeabi_dsub+0x41e>
    1646:	223f      	movs	r2, #63	; 0x3f
    1648:	1b55      	subs	r5, r2, r5
    164a:	40af      	lsls	r7, r5
    164c:	433c      	orrs	r4, r7
    164e:	1e60      	subs	r0, r4, #1
    1650:	4184      	sbcs	r4, r0
    1652:	431c      	orrs	r4, r3
    1654:	2100      	movs	r1, #0
    1656:	2500      	movs	r5, #0
    1658:	e686      	b.n	1368 <__aeabi_dsub+0x60>
    165a:	1c38      	adds	r0, r7, #0
    165c:	3820      	subs	r0, #32
    165e:	1c1e      	adds	r6, r3, #0
    1660:	40c6      	lsrs	r6, r0
    1662:	1c30      	adds	r0, r6, #0
    1664:	2f20      	cmp	r7, #32
    1666:	d060      	beq.n	172a <__aeabi_dsub+0x422>
    1668:	2240      	movs	r2, #64	; 0x40
    166a:	1bd7      	subs	r7, r2, r7
    166c:	40bb      	lsls	r3, r7
    166e:	465a      	mov	r2, fp
    1670:	431a      	orrs	r2, r3
    1672:	1e53      	subs	r3, r2, #1
    1674:	419a      	sbcs	r2, r3
    1676:	4302      	orrs	r2, r0
    1678:	2700      	movs	r7, #0
    167a:	e6cd      	b.n	1418 <__aeabi_dsub+0x110>
    167c:	000007ff 	.word	0x000007ff
    1680:	ff7fffff 	.word	0xff7fffff
    1684:	800fffff 	.word	0x800fffff
    1688:	2d00      	cmp	r5, #0
    168a:	d037      	beq.n	16fc <__aeabi_dsub+0x3f4>
    168c:	4db6      	ldr	r5, [pc, #728]	; (1968 <__aeabi_dsub+0x660>)
    168e:	42a8      	cmp	r0, r5
    1690:	d100      	bne.n	1694 <__aeabi_dsub+0x38c>
    1692:	e08f      	b.n	17b4 <__aeabi_dsub+0x4ac>
    1694:	2580      	movs	r5, #128	; 0x80
    1696:	042d      	lsls	r5, r5, #16
    1698:	427f      	negs	r7, r7
    169a:	4329      	orrs	r1, r5
    169c:	2f38      	cmp	r7, #56	; 0x38
    169e:	dd00      	ble.n	16a2 <__aeabi_dsub+0x39a>
    16a0:	e0a8      	b.n	17f4 <__aeabi_dsub+0x4ec>
    16a2:	2f1f      	cmp	r7, #31
    16a4:	dd00      	ble.n	16a8 <__aeabi_dsub+0x3a0>
    16a6:	e124      	b.n	18f2 <__aeabi_dsub+0x5ea>
    16a8:	2520      	movs	r5, #32
    16aa:	1bed      	subs	r5, r5, r7
    16ac:	1c0e      	adds	r6, r1, #0
    16ae:	40ae      	lsls	r6, r5
    16b0:	46b0      	mov	r8, r6
    16b2:	1c26      	adds	r6, r4, #0
    16b4:	40fe      	lsrs	r6, r7
    16b6:	4642      	mov	r2, r8
    16b8:	40ac      	lsls	r4, r5
    16ba:	4316      	orrs	r6, r2
    16bc:	1e65      	subs	r5, r4, #1
    16be:	41ac      	sbcs	r4, r5
    16c0:	4334      	orrs	r4, r6
    16c2:	40f9      	lsrs	r1, r7
    16c4:	465a      	mov	r2, fp
    16c6:	1b14      	subs	r4, r2, r4
    16c8:	45a3      	cmp	fp, r4
    16ca:	4192      	sbcs	r2, r2
    16cc:	1a5b      	subs	r3, r3, r1
    16ce:	4252      	negs	r2, r2
    16d0:	1a99      	subs	r1, r3, r2
    16d2:	1c05      	adds	r5, r0, #0
    16d4:	46e2      	mov	sl, ip
    16d6:	e6a6      	b.n	1426 <__aeabi_dsub+0x11e>
    16d8:	1c13      	adds	r3, r2, #0
    16da:	433b      	orrs	r3, r7
    16dc:	1c14      	adds	r4, r2, #0
    16de:	2b00      	cmp	r3, #0
    16e0:	d000      	beq.n	16e4 <__aeabi_dsub+0x3dc>
    16e2:	e6a4      	b.n	142e <__aeabi_dsub+0x126>
    16e4:	2700      	movs	r7, #0
    16e6:	2100      	movs	r1, #0
    16e8:	2500      	movs	r5, #0
    16ea:	2400      	movs	r4, #0
    16ec:	e6cd      	b.n	148a <__aeabi_dsub+0x182>
    16ee:	465a      	mov	r2, fp
    16f0:	431a      	orrs	r2, r3
    16f2:	1e53      	subs	r3, r2, #1
    16f4:	419a      	sbcs	r2, r3
    16f6:	b2d2      	uxtb	r2, r2
    16f8:	2300      	movs	r3, #0
    16fa:	e700      	b.n	14fe <__aeabi_dsub+0x1f6>
    16fc:	1c0d      	adds	r5, r1, #0
    16fe:	4325      	orrs	r5, r4
    1700:	d058      	beq.n	17b4 <__aeabi_dsub+0x4ac>
    1702:	43ff      	mvns	r7, r7
    1704:	2f00      	cmp	r7, #0
    1706:	d151      	bne.n	17ac <__aeabi_dsub+0x4a4>
    1708:	465a      	mov	r2, fp
    170a:	1b14      	subs	r4, r2, r4
    170c:	45a3      	cmp	fp, r4
    170e:	4192      	sbcs	r2, r2
    1710:	1a59      	subs	r1, r3, r1
    1712:	4252      	negs	r2, r2
    1714:	1a89      	subs	r1, r1, r2
    1716:	1c05      	adds	r5, r0, #0
    1718:	46e2      	mov	sl, ip
    171a:	e684      	b.n	1426 <__aeabi_dsub+0x11e>
    171c:	4892      	ldr	r0, [pc, #584]	; (1968 <__aeabi_dsub+0x660>)
    171e:	4285      	cmp	r5, r0
    1720:	d000      	beq.n	1724 <__aeabi_dsub+0x41c>
    1722:	e6d1      	b.n	14c8 <__aeabi_dsub+0x1c0>
    1724:	e620      	b.n	1368 <__aeabi_dsub+0x60>
    1726:	2700      	movs	r7, #0
    1728:	e790      	b.n	164c <__aeabi_dsub+0x344>
    172a:	2300      	movs	r3, #0
    172c:	e79f      	b.n	166e <__aeabi_dsub+0x366>
    172e:	1c08      	adds	r0, r1, #0
    1730:	4320      	orrs	r0, r4
    1732:	2d00      	cmp	r5, #0
    1734:	d000      	beq.n	1738 <__aeabi_dsub+0x430>
    1736:	e0c2      	b.n	18be <__aeabi_dsub+0x5b6>
    1738:	2800      	cmp	r0, #0
    173a:	d100      	bne.n	173e <__aeabi_dsub+0x436>
    173c:	e0ef      	b.n	191e <__aeabi_dsub+0x616>
    173e:	4658      	mov	r0, fp
    1740:	4318      	orrs	r0, r3
    1742:	d100      	bne.n	1746 <__aeabi_dsub+0x43e>
    1744:	e610      	b.n	1368 <__aeabi_dsub+0x60>
    1746:	4658      	mov	r0, fp
    1748:	1902      	adds	r2, r0, r4
    174a:	42a2      	cmp	r2, r4
    174c:	41a4      	sbcs	r4, r4
    174e:	4264      	negs	r4, r4
    1750:	1859      	adds	r1, r3, r1
    1752:	1909      	adds	r1, r1, r4
    1754:	1c14      	adds	r4, r2, #0
    1756:	020a      	lsls	r2, r1, #8
    1758:	d400      	bmi.n	175c <__aeabi_dsub+0x454>
    175a:	e605      	b.n	1368 <__aeabi_dsub+0x60>
    175c:	4b83      	ldr	r3, [pc, #524]	; (196c <__aeabi_dsub+0x664>)
    175e:	2501      	movs	r5, #1
    1760:	4019      	ands	r1, r3
    1762:	e601      	b.n	1368 <__aeabi_dsub+0x60>
    1764:	1c08      	adds	r0, r1, #0
    1766:	4320      	orrs	r0, r4
    1768:	2d00      	cmp	r5, #0
    176a:	d138      	bne.n	17de <__aeabi_dsub+0x4d6>
    176c:	2800      	cmp	r0, #0
    176e:	d16f      	bne.n	1850 <__aeabi_dsub+0x548>
    1770:	4659      	mov	r1, fp
    1772:	4319      	orrs	r1, r3
    1774:	d003      	beq.n	177e <__aeabi_dsub+0x476>
    1776:	1c19      	adds	r1, r3, #0
    1778:	465c      	mov	r4, fp
    177a:	46e2      	mov	sl, ip
    177c:	e5f4      	b.n	1368 <__aeabi_dsub+0x60>
    177e:	2700      	movs	r7, #0
    1780:	2100      	movs	r1, #0
    1782:	2400      	movs	r4, #0
    1784:	e681      	b.n	148a <__aeabi_dsub+0x182>
    1786:	4660      	mov	r0, ip
    1788:	3820      	subs	r0, #32
    178a:	1c1a      	adds	r2, r3, #0
    178c:	40c2      	lsrs	r2, r0
    178e:	4666      	mov	r6, ip
    1790:	1c10      	adds	r0, r2, #0
    1792:	2e20      	cmp	r6, #32
    1794:	d100      	bne.n	1798 <__aeabi_dsub+0x490>
    1796:	e0aa      	b.n	18ee <__aeabi_dsub+0x5e6>
    1798:	2240      	movs	r2, #64	; 0x40
    179a:	1b92      	subs	r2, r2, r6
    179c:	4093      	lsls	r3, r2
    179e:	465a      	mov	r2, fp
    17a0:	431a      	orrs	r2, r3
    17a2:	1e53      	subs	r3, r2, #1
    17a4:	419a      	sbcs	r2, r3
    17a6:	4302      	orrs	r2, r0
    17a8:	2300      	movs	r3, #0
    17aa:	e6a8      	b.n	14fe <__aeabi_dsub+0x1f6>
    17ac:	4d6e      	ldr	r5, [pc, #440]	; (1968 <__aeabi_dsub+0x660>)
    17ae:	42a8      	cmp	r0, r5
    17b0:	d000      	beq.n	17b4 <__aeabi_dsub+0x4ac>
    17b2:	e773      	b.n	169c <__aeabi_dsub+0x394>
    17b4:	1c19      	adds	r1, r3, #0
    17b6:	465c      	mov	r4, fp
    17b8:	1c05      	adds	r5, r0, #0
    17ba:	46e2      	mov	sl, ip
    17bc:	e5d4      	b.n	1368 <__aeabi_dsub+0x60>
    17be:	2d00      	cmp	r5, #0
    17c0:	d122      	bne.n	1808 <__aeabi_dsub+0x500>
    17c2:	1c0d      	adds	r5, r1, #0
    17c4:	4325      	orrs	r5, r4
    17c6:	d076      	beq.n	18b6 <__aeabi_dsub+0x5ae>
    17c8:	43d5      	mvns	r5, r2
    17ca:	2d00      	cmp	r5, #0
    17cc:	d170      	bne.n	18b0 <__aeabi_dsub+0x5a8>
    17ce:	445c      	add	r4, fp
    17d0:	455c      	cmp	r4, fp
    17d2:	4192      	sbcs	r2, r2
    17d4:	1859      	adds	r1, r3, r1
    17d6:	4252      	negs	r2, r2
    17d8:	1889      	adds	r1, r1, r2
    17da:	1c05      	adds	r5, r0, #0
    17dc:	e696      	b.n	150c <__aeabi_dsub+0x204>
    17de:	2800      	cmp	r0, #0
    17e0:	d14c      	bne.n	187c <__aeabi_dsub+0x574>
    17e2:	4659      	mov	r1, fp
    17e4:	4319      	orrs	r1, r3
    17e6:	d100      	bne.n	17ea <__aeabi_dsub+0x4e2>
    17e8:	e64a      	b.n	1480 <__aeabi_dsub+0x178>
    17ea:	1c19      	adds	r1, r3, #0
    17ec:	465c      	mov	r4, fp
    17ee:	46e2      	mov	sl, ip
    17f0:	4d5d      	ldr	r5, [pc, #372]	; (1968 <__aeabi_dsub+0x660>)
    17f2:	e5b9      	b.n	1368 <__aeabi_dsub+0x60>
    17f4:	430c      	orrs	r4, r1
    17f6:	1e61      	subs	r1, r4, #1
    17f8:	418c      	sbcs	r4, r1
    17fa:	b2e4      	uxtb	r4, r4
    17fc:	2100      	movs	r1, #0
    17fe:	e761      	b.n	16c4 <__aeabi_dsub+0x3bc>
    1800:	1c05      	adds	r5, r0, #0
    1802:	2100      	movs	r1, #0
    1804:	2400      	movs	r4, #0
    1806:	e640      	b.n	148a <__aeabi_dsub+0x182>
    1808:	4d57      	ldr	r5, [pc, #348]	; (1968 <__aeabi_dsub+0x660>)
    180a:	42a8      	cmp	r0, r5
    180c:	d053      	beq.n	18b6 <__aeabi_dsub+0x5ae>
    180e:	4255      	negs	r5, r2
    1810:	2280      	movs	r2, #128	; 0x80
    1812:	0416      	lsls	r6, r2, #16
    1814:	4331      	orrs	r1, r6
    1816:	2d38      	cmp	r5, #56	; 0x38
    1818:	dc7b      	bgt.n	1912 <__aeabi_dsub+0x60a>
    181a:	2d1f      	cmp	r5, #31
    181c:	dd00      	ble.n	1820 <__aeabi_dsub+0x518>
    181e:	e08c      	b.n	193a <__aeabi_dsub+0x632>
    1820:	2220      	movs	r2, #32
    1822:	1b56      	subs	r6, r2, r5
    1824:	1c0a      	adds	r2, r1, #0
    1826:	46b4      	mov	ip, r6
    1828:	40b2      	lsls	r2, r6
    182a:	1c26      	adds	r6, r4, #0
    182c:	40ee      	lsrs	r6, r5
    182e:	4332      	orrs	r2, r6
    1830:	4690      	mov	r8, r2
    1832:	4662      	mov	r2, ip
    1834:	4094      	lsls	r4, r2
    1836:	1e66      	subs	r6, r4, #1
    1838:	41b4      	sbcs	r4, r6
    183a:	4642      	mov	r2, r8
    183c:	4314      	orrs	r4, r2
    183e:	40e9      	lsrs	r1, r5
    1840:	445c      	add	r4, fp
    1842:	455c      	cmp	r4, fp
    1844:	4192      	sbcs	r2, r2
    1846:	18cb      	adds	r3, r1, r3
    1848:	4252      	negs	r2, r2
    184a:	1899      	adds	r1, r3, r2
    184c:	1c05      	adds	r5, r0, #0
    184e:	e65d      	b.n	150c <__aeabi_dsub+0x204>
    1850:	4658      	mov	r0, fp
    1852:	4318      	orrs	r0, r3
    1854:	d100      	bne.n	1858 <__aeabi_dsub+0x550>
    1856:	e587      	b.n	1368 <__aeabi_dsub+0x60>
    1858:	465e      	mov	r6, fp
    185a:	1ba7      	subs	r7, r4, r6
    185c:	42bc      	cmp	r4, r7
    185e:	4192      	sbcs	r2, r2
    1860:	1ac8      	subs	r0, r1, r3
    1862:	4252      	negs	r2, r2
    1864:	1a80      	subs	r0, r0, r2
    1866:	0206      	lsls	r6, r0, #8
    1868:	d560      	bpl.n	192c <__aeabi_dsub+0x624>
    186a:	4658      	mov	r0, fp
    186c:	1b04      	subs	r4, r0, r4
    186e:	45a3      	cmp	fp, r4
    1870:	4192      	sbcs	r2, r2
    1872:	1a59      	subs	r1, r3, r1
    1874:	4252      	negs	r2, r2
    1876:	1a89      	subs	r1, r1, r2
    1878:	46e2      	mov	sl, ip
    187a:	e575      	b.n	1368 <__aeabi_dsub+0x60>
    187c:	4658      	mov	r0, fp
    187e:	4318      	orrs	r0, r3
    1880:	d033      	beq.n	18ea <__aeabi_dsub+0x5e2>
    1882:	0748      	lsls	r0, r1, #29
    1884:	08e4      	lsrs	r4, r4, #3
    1886:	4304      	orrs	r4, r0
    1888:	2080      	movs	r0, #128	; 0x80
    188a:	08c9      	lsrs	r1, r1, #3
    188c:	0300      	lsls	r0, r0, #12
    188e:	4201      	tst	r1, r0
    1890:	d008      	beq.n	18a4 <__aeabi_dsub+0x59c>
    1892:	08dd      	lsrs	r5, r3, #3
    1894:	4205      	tst	r5, r0
    1896:	d105      	bne.n	18a4 <__aeabi_dsub+0x59c>
    1898:	4659      	mov	r1, fp
    189a:	08ca      	lsrs	r2, r1, #3
    189c:	075c      	lsls	r4, r3, #29
    189e:	4314      	orrs	r4, r2
    18a0:	1c29      	adds	r1, r5, #0
    18a2:	46e2      	mov	sl, ip
    18a4:	0f63      	lsrs	r3, r4, #29
    18a6:	00c9      	lsls	r1, r1, #3
    18a8:	4319      	orrs	r1, r3
    18aa:	00e4      	lsls	r4, r4, #3
    18ac:	4d2e      	ldr	r5, [pc, #184]	; (1968 <__aeabi_dsub+0x660>)
    18ae:	e55b      	b.n	1368 <__aeabi_dsub+0x60>
    18b0:	4a2d      	ldr	r2, [pc, #180]	; (1968 <__aeabi_dsub+0x660>)
    18b2:	4290      	cmp	r0, r2
    18b4:	d1af      	bne.n	1816 <__aeabi_dsub+0x50e>
    18b6:	1c19      	adds	r1, r3, #0
    18b8:	465c      	mov	r4, fp
    18ba:	1c05      	adds	r5, r0, #0
    18bc:	e554      	b.n	1368 <__aeabi_dsub+0x60>
    18be:	2800      	cmp	r0, #0
    18c0:	d030      	beq.n	1924 <__aeabi_dsub+0x61c>
    18c2:	4658      	mov	r0, fp
    18c4:	4318      	orrs	r0, r3
    18c6:	d010      	beq.n	18ea <__aeabi_dsub+0x5e2>
    18c8:	2580      	movs	r5, #128	; 0x80
    18ca:	0748      	lsls	r0, r1, #29
    18cc:	08e4      	lsrs	r4, r4, #3
    18ce:	08c9      	lsrs	r1, r1, #3
    18d0:	032d      	lsls	r5, r5, #12
    18d2:	4304      	orrs	r4, r0
    18d4:	4229      	tst	r1, r5
    18d6:	d0e5      	beq.n	18a4 <__aeabi_dsub+0x59c>
    18d8:	08d8      	lsrs	r0, r3, #3
    18da:	4228      	tst	r0, r5
    18dc:	d1e2      	bne.n	18a4 <__aeabi_dsub+0x59c>
    18de:	465d      	mov	r5, fp
    18e0:	08ea      	lsrs	r2, r5, #3
    18e2:	075c      	lsls	r4, r3, #29
    18e4:	4314      	orrs	r4, r2
    18e6:	1c01      	adds	r1, r0, #0
    18e8:	e7dc      	b.n	18a4 <__aeabi_dsub+0x59c>
    18ea:	4d1f      	ldr	r5, [pc, #124]	; (1968 <__aeabi_dsub+0x660>)
    18ec:	e53c      	b.n	1368 <__aeabi_dsub+0x60>
    18ee:	2300      	movs	r3, #0
    18f0:	e755      	b.n	179e <__aeabi_dsub+0x496>
    18f2:	1c3d      	adds	r5, r7, #0
    18f4:	3d20      	subs	r5, #32
    18f6:	1c0e      	adds	r6, r1, #0
    18f8:	40ee      	lsrs	r6, r5
    18fa:	1c35      	adds	r5, r6, #0
    18fc:	2f20      	cmp	r7, #32
    18fe:	d02e      	beq.n	195e <__aeabi_dsub+0x656>
    1900:	2640      	movs	r6, #64	; 0x40
    1902:	1bf7      	subs	r7, r6, r7
    1904:	40b9      	lsls	r1, r7
    1906:	430c      	orrs	r4, r1
    1908:	1e61      	subs	r1, r4, #1
    190a:	418c      	sbcs	r4, r1
    190c:	432c      	orrs	r4, r5
    190e:	2100      	movs	r1, #0
    1910:	e6d8      	b.n	16c4 <__aeabi_dsub+0x3bc>
    1912:	430c      	orrs	r4, r1
    1914:	1e61      	subs	r1, r4, #1
    1916:	418c      	sbcs	r4, r1
    1918:	b2e4      	uxtb	r4, r4
    191a:	2100      	movs	r1, #0
    191c:	e790      	b.n	1840 <__aeabi_dsub+0x538>
    191e:	1c19      	adds	r1, r3, #0
    1920:	465c      	mov	r4, fp
    1922:	e521      	b.n	1368 <__aeabi_dsub+0x60>
    1924:	1c19      	adds	r1, r3, #0
    1926:	465c      	mov	r4, fp
    1928:	4d0f      	ldr	r5, [pc, #60]	; (1968 <__aeabi_dsub+0x660>)
    192a:	e51d      	b.n	1368 <__aeabi_dsub+0x60>
    192c:	1c03      	adds	r3, r0, #0
    192e:	433b      	orrs	r3, r7
    1930:	d100      	bne.n	1934 <__aeabi_dsub+0x62c>
    1932:	e724      	b.n	177e <__aeabi_dsub+0x476>
    1934:	1c01      	adds	r1, r0, #0
    1936:	1c3c      	adds	r4, r7, #0
    1938:	e516      	b.n	1368 <__aeabi_dsub+0x60>
    193a:	2620      	movs	r6, #32
    193c:	4276      	negs	r6, r6
    193e:	1976      	adds	r6, r6, r5
    1940:	1c0a      	adds	r2, r1, #0
    1942:	40f2      	lsrs	r2, r6
    1944:	4690      	mov	r8, r2
    1946:	2d20      	cmp	r5, #32
    1948:	d00b      	beq.n	1962 <__aeabi_dsub+0x65a>
    194a:	2640      	movs	r6, #64	; 0x40
    194c:	1b75      	subs	r5, r6, r5
    194e:	40a9      	lsls	r1, r5
    1950:	430c      	orrs	r4, r1
    1952:	1e61      	subs	r1, r4, #1
    1954:	418c      	sbcs	r4, r1
    1956:	4645      	mov	r5, r8
    1958:	432c      	orrs	r4, r5
    195a:	2100      	movs	r1, #0
    195c:	e770      	b.n	1840 <__aeabi_dsub+0x538>
    195e:	2100      	movs	r1, #0
    1960:	e7d1      	b.n	1906 <__aeabi_dsub+0x5fe>
    1962:	2100      	movs	r1, #0
    1964:	e7f4      	b.n	1950 <__aeabi_dsub+0x648>
    1966:	46c0      	nop			; (mov r8, r8)
    1968:	000007ff 	.word	0x000007ff
    196c:	ff7fffff 	.word	0xff7fffff

00001970 <__aeabi_d2iz>:
__aeabi_d2iz():
    1970:	b570      	push	{r4, r5, r6, lr}
    1972:	1c0b      	adds	r3, r1, #0
    1974:	4c12      	ldr	r4, [pc, #72]	; (19c0 <__aeabi_d2iz+0x50>)
    1976:	0309      	lsls	r1, r1, #12
    1978:	0b0e      	lsrs	r6, r1, #12
    197a:	0059      	lsls	r1, r3, #1
    197c:	1c02      	adds	r2, r0, #0
    197e:	0d49      	lsrs	r1, r1, #21
    1980:	0fdd      	lsrs	r5, r3, #31
    1982:	2000      	movs	r0, #0
    1984:	42a1      	cmp	r1, r4
    1986:	dd11      	ble.n	19ac <__aeabi_d2iz+0x3c>
    1988:	480e      	ldr	r0, [pc, #56]	; (19c4 <__aeabi_d2iz+0x54>)
    198a:	4281      	cmp	r1, r0
    198c:	dc0f      	bgt.n	19ae <__aeabi_d2iz+0x3e>
    198e:	2080      	movs	r0, #128	; 0x80
    1990:	0340      	lsls	r0, r0, #13
    1992:	4306      	orrs	r6, r0
    1994:	480c      	ldr	r0, [pc, #48]	; (19c8 <__aeabi_d2iz+0x58>)
    1996:	1a40      	subs	r0, r0, r1
    1998:	281f      	cmp	r0, #31
    199a:	dd0b      	ble.n	19b4 <__aeabi_d2iz+0x44>
    199c:	4a0b      	ldr	r2, [pc, #44]	; (19cc <__aeabi_d2iz+0x5c>)
    199e:	1a52      	subs	r2, r2, r1
    19a0:	40d6      	lsrs	r6, r2
    19a2:	1c32      	adds	r2, r6, #0
    19a4:	4250      	negs	r0, r2
    19a6:	2d00      	cmp	r5, #0
    19a8:	d100      	bne.n	19ac <__aeabi_d2iz+0x3c>
    19aa:	1c10      	adds	r0, r2, #0
    19ac:	bd70      	pop	{r4, r5, r6, pc}
    19ae:	4b08      	ldr	r3, [pc, #32]	; (19d0 <__aeabi_d2iz+0x60>)
    19b0:	18e8      	adds	r0, r5, r3
    19b2:	e7fb      	b.n	19ac <__aeabi_d2iz+0x3c>
    19b4:	4b07      	ldr	r3, [pc, #28]	; (19d4 <__aeabi_d2iz+0x64>)
    19b6:	40c2      	lsrs	r2, r0
    19b8:	18c9      	adds	r1, r1, r3
    19ba:	408e      	lsls	r6, r1
    19bc:	4332      	orrs	r2, r6
    19be:	e7f1      	b.n	19a4 <__aeabi_d2iz+0x34>
    19c0:	000003fe 	.word	0x000003fe
    19c4:	0000041d 	.word	0x0000041d
    19c8:	00000433 	.word	0x00000433
    19cc:	00000413 	.word	0x00000413
    19d0:	7fffffff 	.word	0x7fffffff
    19d4:	fffffbed 	.word	0xfffffbed

000019d8 <__aeabi_ui2d>:
__aeabi_ui2d():
    19d8:	b510      	push	{r4, lr}
    19da:	1e04      	subs	r4, r0, #0
    19dc:	d028      	beq.n	1a30 <__aeabi_ui2d+0x58>
    19de:	f000 f82f 	bl	1a40 <__clzsi2>
    19e2:	4a15      	ldr	r2, [pc, #84]	; (1a38 <__aeabi_ui2d+0x60>)
    19e4:	1a12      	subs	r2, r2, r0
    19e6:	280a      	cmp	r0, #10
    19e8:	dd15      	ble.n	1a16 <__aeabi_ui2d+0x3e>
    19ea:	380b      	subs	r0, #11
    19ec:	4084      	lsls	r4, r0
    19ee:	0324      	lsls	r4, r4, #12
    19f0:	0552      	lsls	r2, r2, #21
    19f2:	0b24      	lsrs	r4, r4, #12
    19f4:	0d52      	lsrs	r2, r2, #21
    19f6:	2300      	movs	r3, #0
    19f8:	2000      	movs	r0, #0
    19fa:	2100      	movs	r1, #0
    19fc:	0324      	lsls	r4, r4, #12
    19fe:	1c18      	adds	r0, r3, #0
    1a00:	0d0b      	lsrs	r3, r1, #20
    1a02:	0b24      	lsrs	r4, r4, #12
    1a04:	051b      	lsls	r3, r3, #20
    1a06:	4323      	orrs	r3, r4
    1a08:	4c0c      	ldr	r4, [pc, #48]	; (1a3c <__aeabi_ui2d+0x64>)
    1a0a:	0512      	lsls	r2, r2, #20
    1a0c:	401c      	ands	r4, r3
    1a0e:	4314      	orrs	r4, r2
    1a10:	0064      	lsls	r4, r4, #1
    1a12:	0861      	lsrs	r1, r4, #1
    1a14:	bd10      	pop	{r4, pc}
    1a16:	1c03      	adds	r3, r0, #0
    1a18:	3315      	adds	r3, #21
    1a1a:	1c21      	adds	r1, r4, #0
    1a1c:	4099      	lsls	r1, r3
    1a1e:	1c0b      	adds	r3, r1, #0
    1a20:	210b      	movs	r1, #11
    1a22:	1a08      	subs	r0, r1, r0
    1a24:	40c4      	lsrs	r4, r0
    1a26:	0324      	lsls	r4, r4, #12
    1a28:	0552      	lsls	r2, r2, #21
    1a2a:	0b24      	lsrs	r4, r4, #12
    1a2c:	0d52      	lsrs	r2, r2, #21
    1a2e:	e7e3      	b.n	19f8 <__aeabi_ui2d+0x20>
    1a30:	2200      	movs	r2, #0
    1a32:	2400      	movs	r4, #0
    1a34:	2300      	movs	r3, #0
    1a36:	e7df      	b.n	19f8 <__aeabi_ui2d+0x20>
    1a38:	0000041e 	.word	0x0000041e
    1a3c:	800fffff 	.word	0x800fffff

00001a40 <__clzsi2>:
__clzsi2():
    1a40:	211c      	movs	r1, #28
    1a42:	2301      	movs	r3, #1
    1a44:	041b      	lsls	r3, r3, #16
    1a46:	4298      	cmp	r0, r3
    1a48:	d301      	bcc.n	1a4e <__clzsi2+0xe>
    1a4a:	0c00      	lsrs	r0, r0, #16
    1a4c:	3910      	subs	r1, #16
    1a4e:	0a1b      	lsrs	r3, r3, #8
    1a50:	4298      	cmp	r0, r3
    1a52:	d301      	bcc.n	1a58 <__clzsi2+0x18>
    1a54:	0a00      	lsrs	r0, r0, #8
    1a56:	3908      	subs	r1, #8
    1a58:	091b      	lsrs	r3, r3, #4
    1a5a:	4298      	cmp	r0, r3
    1a5c:	d301      	bcc.n	1a62 <__clzsi2+0x22>
    1a5e:	0900      	lsrs	r0, r0, #4
    1a60:	3904      	subs	r1, #4
    1a62:	a202      	add	r2, pc, #8	; (adr r2, 1a6c <__clzsi2+0x2c>)
    1a64:	5c10      	ldrb	r0, [r2, r0]
    1a66:	1840      	adds	r0, r0, r1
    1a68:	4770      	bx	lr
    1a6a:	46c0      	nop			; (mov r8, r8)
    1a6c:	02020304 	.word	0x02020304
    1a70:	01010101 	.word	0x01010101
	...

00001a7c <__aeabi_lmul>:
__aeabi_lmul():
    1a7c:	469c      	mov	ip, r3
    1a7e:	0403      	lsls	r3, r0, #16
    1a80:	b5f0      	push	{r4, r5, r6, r7, lr}
    1a82:	0c1b      	lsrs	r3, r3, #16
    1a84:	0417      	lsls	r7, r2, #16
    1a86:	0c3f      	lsrs	r7, r7, #16
    1a88:	0c15      	lsrs	r5, r2, #16
    1a8a:	1c1e      	adds	r6, r3, #0
    1a8c:	1c04      	adds	r4, r0, #0
    1a8e:	0c00      	lsrs	r0, r0, #16
    1a90:	437e      	muls	r6, r7
    1a92:	436b      	muls	r3, r5
    1a94:	4347      	muls	r7, r0
    1a96:	4345      	muls	r5, r0
    1a98:	18fb      	adds	r3, r7, r3
    1a9a:	0c30      	lsrs	r0, r6, #16
    1a9c:	1818      	adds	r0, r3, r0
    1a9e:	4287      	cmp	r7, r0
    1aa0:	d902      	bls.n	1aa8 <__aeabi_lmul+0x2c>
    1aa2:	2380      	movs	r3, #128	; 0x80
    1aa4:	025b      	lsls	r3, r3, #9
    1aa6:	18ed      	adds	r5, r5, r3
    1aa8:	0c03      	lsrs	r3, r0, #16
    1aaa:	18ed      	adds	r5, r5, r3
    1aac:	4663      	mov	r3, ip
    1aae:	435c      	muls	r4, r3
    1ab0:	434a      	muls	r2, r1
    1ab2:	0436      	lsls	r6, r6, #16
    1ab4:	0c36      	lsrs	r6, r6, #16
    1ab6:	18a1      	adds	r1, r4, r2
    1ab8:	0400      	lsls	r0, r0, #16
    1aba:	1980      	adds	r0, r0, r6
    1abc:	1949      	adds	r1, r1, r5
    1abe:	bdf0      	pop	{r4, r5, r6, r7, pc}

00001ac0 <__divdi3>:
__divdi3():
    1ac0:	b5f0      	push	{r4, r5, r6, r7, lr}
    1ac2:	4644      	mov	r4, r8
    1ac4:	465f      	mov	r7, fp
    1ac6:	4656      	mov	r6, sl
    1ac8:	464d      	mov	r5, r9
    1aca:	b4f0      	push	{r4, r5, r6, r7}
    1acc:	1c1c      	adds	r4, r3, #0
    1ace:	b085      	sub	sp, #20
    1ad0:	2900      	cmp	r1, #0
    1ad2:	da00      	bge.n	1ad6 <__divdi3+0x16>
    1ad4:	e0db      	b.n	1c8e <__divdi3+0x1ce>
    1ad6:	1c0f      	adds	r7, r1, #0
    1ad8:	2100      	movs	r1, #0
    1ada:	1c06      	adds	r6, r0, #0
    1adc:	468a      	mov	sl, r1
    1ade:	1c10      	adds	r0, r2, #0
    1ae0:	1c19      	adds	r1, r3, #0
    1ae2:	2c00      	cmp	r4, #0
    1ae4:	da00      	bge.n	1ae8 <__divdi3+0x28>
    1ae6:	e0c9      	b.n	1c7c <__divdi3+0x1bc>
    1ae8:	9601      	str	r6, [sp, #4]
    1aea:	9000      	str	r0, [sp, #0]
    1aec:	4689      	mov	r9, r1
    1aee:	4680      	mov	r8, r0
    1af0:	2900      	cmp	r1, #0
    1af2:	d151      	bne.n	1b98 <__divdi3+0xd8>
    1af4:	42b8      	cmp	r0, r7
    1af6:	d800      	bhi.n	1afa <__divdi3+0x3a>
    1af8:	e071      	b.n	1bde <__divdi3+0x11e>
    1afa:	f7ff ffa1 	bl	1a40 <__clzsi2>
    1afe:	2800      	cmp	r0, #0
    1b00:	d009      	beq.n	1b16 <__divdi3+0x56>
    1b02:	2320      	movs	r3, #32
    1b04:	4645      	mov	r5, r8
    1b06:	1c31      	adds	r1, r6, #0
    1b08:	1a1b      	subs	r3, r3, r0
    1b0a:	4085      	lsls	r5, r0
    1b0c:	4087      	lsls	r7, r0
    1b0e:	40d9      	lsrs	r1, r3
    1b10:	46a8      	mov	r8, r5
    1b12:	430f      	orrs	r7, r1
    1b14:	4086      	lsls	r6, r0
    1b16:	4642      	mov	r2, r8
    1b18:	0c15      	lsrs	r5, r2, #16
    1b1a:	0413      	lsls	r3, r2, #16
    1b1c:	0c1b      	lsrs	r3, r3, #16
    1b1e:	1c29      	adds	r1, r5, #0
    1b20:	1c38      	adds	r0, r7, #0
    1b22:	469b      	mov	fp, r3
    1b24:	f7fe fe92 	bl	84c <__aeabi_uidiv>
    1b28:	465b      	mov	r3, fp
    1b2a:	4343      	muls	r3, r0
    1b2c:	1c04      	adds	r4, r0, #0
    1b2e:	1c29      	adds	r1, r5, #0
    1b30:	1c38      	adds	r0, r7, #0
    1b32:	4699      	mov	r9, r3
    1b34:	f7fe fece 	bl	8d4 <__aeabi_uidivmod>
    1b38:	0c33      	lsrs	r3, r6, #16
    1b3a:	0408      	lsls	r0, r1, #16
    1b3c:	4318      	orrs	r0, r3
    1b3e:	4581      	cmp	r9, r0
    1b40:	d909      	bls.n	1b56 <__divdi3+0x96>
    1b42:	4440      	add	r0, r8
    1b44:	1e63      	subs	r3, r4, #1
    1b46:	4580      	cmp	r8, r0
    1b48:	d900      	bls.n	1b4c <__divdi3+0x8c>
    1b4a:	e178      	b.n	1e3e <__divdi3+0x37e>
    1b4c:	4581      	cmp	r9, r0
    1b4e:	d800      	bhi.n	1b52 <__divdi3+0x92>
    1b50:	e175      	b.n	1e3e <__divdi3+0x37e>
    1b52:	3c02      	subs	r4, #2
    1b54:	4440      	add	r0, r8
    1b56:	4649      	mov	r1, r9
    1b58:	1a41      	subs	r1, r0, r1
    1b5a:	4689      	mov	r9, r1
    1b5c:	1c08      	adds	r0, r1, #0
    1b5e:	1c29      	adds	r1, r5, #0
    1b60:	f7fe fe74 	bl	84c <__aeabi_uidiv>
    1b64:	465a      	mov	r2, fp
    1b66:	4342      	muls	r2, r0
    1b68:	1c07      	adds	r7, r0, #0
    1b6a:	1c29      	adds	r1, r5, #0
    1b6c:	4648      	mov	r0, r9
    1b6e:	4693      	mov	fp, r2
    1b70:	f7fe feb0 	bl	8d4 <__aeabi_uidivmod>
    1b74:	0436      	lsls	r6, r6, #16
    1b76:	0409      	lsls	r1, r1, #16
    1b78:	0c36      	lsrs	r6, r6, #16
    1b7a:	430e      	orrs	r6, r1
    1b7c:	45b3      	cmp	fp, r6
    1b7e:	d907      	bls.n	1b90 <__divdi3+0xd0>
    1b80:	4446      	add	r6, r8
    1b82:	1e7b      	subs	r3, r7, #1
    1b84:	45b0      	cmp	r8, r6
    1b86:	d802      	bhi.n	1b8e <__divdi3+0xce>
    1b88:	3f02      	subs	r7, #2
    1b8a:	45b3      	cmp	fp, r6
    1b8c:	d800      	bhi.n	1b90 <__divdi3+0xd0>
    1b8e:	1c1f      	adds	r7, r3, #0
    1b90:	0424      	lsls	r4, r4, #16
    1b92:	4327      	orrs	r7, r4
    1b94:	2400      	movs	r4, #0
    1b96:	e003      	b.n	1ba0 <__divdi3+0xe0>
    1b98:	42b9      	cmp	r1, r7
    1b9a:	d911      	bls.n	1bc0 <__divdi3+0x100>
    1b9c:	2400      	movs	r4, #0
    1b9e:	2700      	movs	r7, #0
    1ba0:	4652      	mov	r2, sl
    1ba2:	1c38      	adds	r0, r7, #0
    1ba4:	1c21      	adds	r1, r4, #0
    1ba6:	2a00      	cmp	r2, #0
    1ba8:	d003      	beq.n	1bb2 <__divdi3+0xf2>
    1baa:	1c3b      	adds	r3, r7, #0
    1bac:	2100      	movs	r1, #0
    1bae:	4258      	negs	r0, r3
    1bb0:	41a1      	sbcs	r1, r4
    1bb2:	b005      	add	sp, #20
    1bb4:	bc3c      	pop	{r2, r3, r4, r5}
    1bb6:	4690      	mov	r8, r2
    1bb8:	4699      	mov	r9, r3
    1bba:	46a2      	mov	sl, r4
    1bbc:	46ab      	mov	fp, r5
    1bbe:	bdf0      	pop	{r4, r5, r6, r7, pc}
    1bc0:	1c08      	adds	r0, r1, #0
    1bc2:	f7ff ff3d 	bl	1a40 <__clzsi2>
    1bc6:	1e04      	subs	r4, r0, #0
    1bc8:	d000      	beq.n	1bcc <__divdi3+0x10c>
    1bca:	e0bf      	b.n	1d4c <__divdi3+0x28c>
    1bcc:	45b9      	cmp	r9, r7
    1bce:	d200      	bcs.n	1bd2 <__divdi3+0x112>
    1bd0:	e142      	b.n	1e58 <__divdi3+0x398>
    1bd2:	9d01      	ldr	r5, [sp, #4]
    1bd4:	9900      	ldr	r1, [sp, #0]
    1bd6:	1c07      	adds	r7, r0, #0
    1bd8:	428d      	cmp	r5, r1
    1bda:	4147      	adcs	r7, r0
    1bdc:	e7e0      	b.n	1ba0 <__divdi3+0xe0>
    1bde:	2800      	cmp	r0, #0
    1be0:	d104      	bne.n	1bec <__divdi3+0x12c>
    1be2:	2001      	movs	r0, #1
    1be4:	2100      	movs	r1, #0
    1be6:	f7fe fe31 	bl	84c <__aeabi_uidiv>
    1bea:	4680      	mov	r8, r0
    1bec:	4640      	mov	r0, r8
    1bee:	f7ff ff27 	bl	1a40 <__clzsi2>
    1bf2:	2800      	cmp	r0, #0
    1bf4:	d152      	bne.n	1c9c <__divdi3+0x1dc>
    1bf6:	4641      	mov	r1, r8
    1bf8:	4644      	mov	r4, r8
    1bfa:	040b      	lsls	r3, r1, #16
    1bfc:	1b3c      	subs	r4, r7, r4
    1bfe:	0c1b      	lsrs	r3, r3, #16
    1c00:	46a3      	mov	fp, r4
    1c02:	0c0d      	lsrs	r5, r1, #16
    1c04:	9300      	str	r3, [sp, #0]
    1c06:	2401      	movs	r4, #1
    1c08:	1c29      	adds	r1, r5, #0
    1c0a:	4658      	mov	r0, fp
    1c0c:	f7fe fe1e 	bl	84c <__aeabi_uidiv>
    1c10:	9f00      	ldr	r7, [sp, #0]
    1c12:	4681      	mov	r9, r0
    1c14:	4347      	muls	r7, r0
    1c16:	1c29      	adds	r1, r5, #0
    1c18:	4658      	mov	r0, fp
    1c1a:	f7fe fe5b 	bl	8d4 <__aeabi_uidivmod>
    1c1e:	0c33      	lsrs	r3, r6, #16
    1c20:	0409      	lsls	r1, r1, #16
    1c22:	4319      	orrs	r1, r3
    1c24:	428f      	cmp	r7, r1
    1c26:	d908      	bls.n	1c3a <__divdi3+0x17a>
    1c28:	464b      	mov	r3, r9
    1c2a:	4441      	add	r1, r8
    1c2c:	3b01      	subs	r3, #1
    1c2e:	4588      	cmp	r8, r1
    1c30:	d802      	bhi.n	1c38 <__divdi3+0x178>
    1c32:	428f      	cmp	r7, r1
    1c34:	d900      	bls.n	1c38 <__divdi3+0x178>
    1c36:	e11a      	b.n	1e6e <__divdi3+0x3ae>
    1c38:	4699      	mov	r9, r3
    1c3a:	1bc9      	subs	r1, r1, r7
    1c3c:	468b      	mov	fp, r1
    1c3e:	1c08      	adds	r0, r1, #0
    1c40:	1c29      	adds	r1, r5, #0
    1c42:	f7fe fe03 	bl	84c <__aeabi_uidiv>
    1c46:	9b00      	ldr	r3, [sp, #0]
    1c48:	1c29      	adds	r1, r5, #0
    1c4a:	4343      	muls	r3, r0
    1c4c:	1c07      	adds	r7, r0, #0
    1c4e:	4658      	mov	r0, fp
    1c50:	9300      	str	r3, [sp, #0]
    1c52:	f7fe fe3f 	bl	8d4 <__aeabi_uidivmod>
    1c56:	0436      	lsls	r6, r6, #16
    1c58:	9d00      	ldr	r5, [sp, #0]
    1c5a:	0409      	lsls	r1, r1, #16
    1c5c:	0c36      	lsrs	r6, r6, #16
    1c5e:	430e      	orrs	r6, r1
    1c60:	42b5      	cmp	r5, r6
    1c62:	d907      	bls.n	1c74 <__divdi3+0x1b4>
    1c64:	4446      	add	r6, r8
    1c66:	1e7b      	subs	r3, r7, #1
    1c68:	45b0      	cmp	r8, r6
    1c6a:	d802      	bhi.n	1c72 <__divdi3+0x1b2>
    1c6c:	3f02      	subs	r7, #2
    1c6e:	42b5      	cmp	r5, r6
    1c70:	d800      	bhi.n	1c74 <__divdi3+0x1b4>
    1c72:	1c1f      	adds	r7, r3, #0
    1c74:	4649      	mov	r1, r9
    1c76:	040e      	lsls	r6, r1, #16
    1c78:	4337      	orrs	r7, r6
    1c7a:	e791      	b.n	1ba0 <__divdi3+0xe0>
    1c7c:	4652      	mov	r2, sl
    1c7e:	43d2      	mvns	r2, r2
    1c80:	1c03      	adds	r3, r0, #0
    1c82:	1c0c      	adds	r4, r1, #0
    1c84:	4692      	mov	sl, r2
    1c86:	2100      	movs	r1, #0
    1c88:	4258      	negs	r0, r3
    1c8a:	41a1      	sbcs	r1, r4
    1c8c:	e72c      	b.n	1ae8 <__divdi3+0x28>
    1c8e:	2700      	movs	r7, #0
    1c90:	4246      	negs	r6, r0
    1c92:	418f      	sbcs	r7, r1
    1c94:	2101      	movs	r1, #1
    1c96:	4249      	negs	r1, r1
    1c98:	468a      	mov	sl, r1
    1c9a:	e720      	b.n	1ade <__divdi3+0x1e>
    1c9c:	2320      	movs	r3, #32
    1c9e:	1a1b      	subs	r3, r3, r0
    1ca0:	4642      	mov	r2, r8
    1ca2:	1c35      	adds	r5, r6, #0
    1ca4:	4082      	lsls	r2, r0
    1ca6:	1c3c      	adds	r4, r7, #0
    1ca8:	40dd      	lsrs	r5, r3
    1caa:	40dc      	lsrs	r4, r3
    1cac:	4087      	lsls	r7, r0
    1cae:	1c2b      	adds	r3, r5, #0
    1cb0:	0c15      	lsrs	r5, r2, #16
    1cb2:	433b      	orrs	r3, r7
    1cb4:	1c29      	adds	r1, r5, #0
    1cb6:	4086      	lsls	r6, r0
    1cb8:	1c20      	adds	r0, r4, #0
    1cba:	9300      	str	r3, [sp, #0]
    1cbc:	0417      	lsls	r7, r2, #16
    1cbe:	4690      	mov	r8, r2
    1cc0:	f7fe fdc4 	bl	84c <__aeabi_uidiv>
    1cc4:	0c3f      	lsrs	r7, r7, #16
    1cc6:	1c01      	adds	r1, r0, #0
    1cc8:	4379      	muls	r1, r7
    1cca:	4681      	mov	r9, r0
    1ccc:	468b      	mov	fp, r1
    1cce:	1c20      	adds	r0, r4, #0
    1cd0:	1c29      	adds	r1, r5, #0
    1cd2:	f7fe fdff 	bl	8d4 <__aeabi_uidivmod>
    1cd6:	9c00      	ldr	r4, [sp, #0]
    1cd8:	0409      	lsls	r1, r1, #16
    1cda:	0c23      	lsrs	r3, r4, #16
    1cdc:	4319      	orrs	r1, r3
    1cde:	458b      	cmp	fp, r1
    1ce0:	d90c      	bls.n	1cfc <__divdi3+0x23c>
    1ce2:	464b      	mov	r3, r9
    1ce4:	4441      	add	r1, r8
    1ce6:	3b01      	subs	r3, #1
    1ce8:	4588      	cmp	r8, r1
    1cea:	d900      	bls.n	1cee <__divdi3+0x22e>
    1cec:	e0bd      	b.n	1e6a <__divdi3+0x3aa>
    1cee:	458b      	cmp	fp, r1
    1cf0:	d800      	bhi.n	1cf4 <__divdi3+0x234>
    1cf2:	e0ba      	b.n	1e6a <__divdi3+0x3aa>
    1cf4:	2202      	movs	r2, #2
    1cf6:	4252      	negs	r2, r2
    1cf8:	4491      	add	r9, r2
    1cfa:	4441      	add	r1, r8
    1cfc:	465c      	mov	r4, fp
    1cfe:	1b0c      	subs	r4, r1, r4
    1d00:	1c20      	adds	r0, r4, #0
    1d02:	1c29      	adds	r1, r5, #0
    1d04:	9401      	str	r4, [sp, #4]
    1d06:	f7fe fda1 	bl	84c <__aeabi_uidiv>
    1d0a:	1c39      	adds	r1, r7, #0
    1d0c:	4341      	muls	r1, r0
    1d0e:	1c04      	adds	r4, r0, #0
    1d10:	468b      	mov	fp, r1
    1d12:	9801      	ldr	r0, [sp, #4]
    1d14:	1c29      	adds	r1, r5, #0
    1d16:	f7fe fddd 	bl	8d4 <__aeabi_uidivmod>
    1d1a:	9a00      	ldr	r2, [sp, #0]
    1d1c:	0409      	lsls	r1, r1, #16
    1d1e:	0413      	lsls	r3, r2, #16
    1d20:	0c1b      	lsrs	r3, r3, #16
    1d22:	4319      	orrs	r1, r3
    1d24:	458b      	cmp	fp, r1
    1d26:	d909      	bls.n	1d3c <__divdi3+0x27c>
    1d28:	4441      	add	r1, r8
    1d2a:	1e63      	subs	r3, r4, #1
    1d2c:	4588      	cmp	r8, r1
    1d2e:	d900      	bls.n	1d32 <__divdi3+0x272>
    1d30:	e097      	b.n	1e62 <__divdi3+0x3a2>
    1d32:	458b      	cmp	fp, r1
    1d34:	d800      	bhi.n	1d38 <__divdi3+0x278>
    1d36:	e094      	b.n	1e62 <__divdi3+0x3a2>
    1d38:	3c02      	subs	r4, #2
    1d3a:	4441      	add	r1, r8
    1d3c:	465b      	mov	r3, fp
    1d3e:	1acb      	subs	r3, r1, r3
    1d40:	4649      	mov	r1, r9
    1d42:	469b      	mov	fp, r3
    1d44:	040b      	lsls	r3, r1, #16
    1d46:	431c      	orrs	r4, r3
    1d48:	9700      	str	r7, [sp, #0]
    1d4a:	e75d      	b.n	1c08 <__divdi3+0x148>
    1d4c:	9d00      	ldr	r5, [sp, #0]
    1d4e:	2320      	movs	r3, #32
    1d50:	1a1b      	subs	r3, r3, r0
    1d52:	464a      	mov	r2, r9
    1d54:	4082      	lsls	r2, r0
    1d56:	40dd      	lsrs	r5, r3
    1d58:	4315      	orrs	r5, r2
    1d5a:	1c39      	adds	r1, r7, #0
    1d5c:	9a00      	ldr	r2, [sp, #0]
    1d5e:	40d9      	lsrs	r1, r3
    1d60:	4082      	lsls	r2, r0
    1d62:	4688      	mov	r8, r1
    1d64:	1c31      	adds	r1, r6, #0
    1d66:	9200      	str	r2, [sp, #0]
    1d68:	40d9      	lsrs	r1, r3
    1d6a:	1c3a      	adds	r2, r7, #0
    1d6c:	4082      	lsls	r2, r0
    1d6e:	1c0b      	adds	r3, r1, #0
    1d70:	4313      	orrs	r3, r2
    1d72:	9301      	str	r3, [sp, #4]
    1d74:	0c2f      	lsrs	r7, r5, #16
    1d76:	042b      	lsls	r3, r5, #16
    1d78:	0c1b      	lsrs	r3, r3, #16
    1d7a:	1c39      	adds	r1, r7, #0
    1d7c:	4640      	mov	r0, r8
    1d7e:	9302      	str	r3, [sp, #8]
    1d80:	f7fe fd64 	bl	84c <__aeabi_uidiv>
    1d84:	9a02      	ldr	r2, [sp, #8]
    1d86:	4681      	mov	r9, r0
    1d88:	4342      	muls	r2, r0
    1d8a:	1c39      	adds	r1, r7, #0
    1d8c:	4640      	mov	r0, r8
    1d8e:	4693      	mov	fp, r2
    1d90:	f7fe fda0 	bl	8d4 <__aeabi_uidivmod>
    1d94:	9a01      	ldr	r2, [sp, #4]
    1d96:	0409      	lsls	r1, r1, #16
    1d98:	0c13      	lsrs	r3, r2, #16
    1d9a:	4319      	orrs	r1, r3
    1d9c:	458b      	cmp	fp, r1
    1d9e:	d90a      	bls.n	1db6 <__divdi3+0x2f6>
    1da0:	464b      	mov	r3, r9
    1da2:	1949      	adds	r1, r1, r5
    1da4:	3b01      	subs	r3, #1
    1da6:	428d      	cmp	r5, r1
    1da8:	d85d      	bhi.n	1e66 <__divdi3+0x3a6>
    1daa:	458b      	cmp	fp, r1
    1dac:	d95b      	bls.n	1e66 <__divdi3+0x3a6>
    1dae:	2302      	movs	r3, #2
    1db0:	425b      	negs	r3, r3
    1db2:	4499      	add	r9, r3
    1db4:	1949      	adds	r1, r1, r5
    1db6:	465a      	mov	r2, fp
    1db8:	1a8a      	subs	r2, r1, r2
    1dba:	1c10      	adds	r0, r2, #0
    1dbc:	1c39      	adds	r1, r7, #0
    1dbe:	9203      	str	r2, [sp, #12]
    1dc0:	f7fe fd44 	bl	84c <__aeabi_uidiv>
    1dc4:	9b02      	ldr	r3, [sp, #8]
    1dc6:	4680      	mov	r8, r0
    1dc8:	4343      	muls	r3, r0
    1dca:	1c39      	adds	r1, r7, #0
    1dcc:	9803      	ldr	r0, [sp, #12]
    1dce:	469b      	mov	fp, r3
    1dd0:	f7fe fd80 	bl	8d4 <__aeabi_uidivmod>
    1dd4:	9a01      	ldr	r2, [sp, #4]
    1dd6:	0409      	lsls	r1, r1, #16
    1dd8:	0413      	lsls	r3, r2, #16
    1dda:	0c1b      	lsrs	r3, r3, #16
    1ddc:	4319      	orrs	r1, r3
    1dde:	458b      	cmp	fp, r1
    1de0:	d90a      	bls.n	1df8 <__divdi3+0x338>
    1de2:	4643      	mov	r3, r8
    1de4:	1949      	adds	r1, r1, r5
    1de6:	3b01      	subs	r3, #1
    1de8:	428d      	cmp	r5, r1
    1dea:	d838      	bhi.n	1e5e <__divdi3+0x39e>
    1dec:	458b      	cmp	fp, r1
    1dee:	d936      	bls.n	1e5e <__divdi3+0x39e>
    1df0:	2302      	movs	r3, #2
    1df2:	425b      	negs	r3, r3
    1df4:	4498      	add	r8, r3
    1df6:	1949      	adds	r1, r1, r5
    1df8:	465d      	mov	r5, fp
    1dfa:	1b4d      	subs	r5, r1, r5
    1dfc:	46ab      	mov	fp, r5
    1dfe:	4649      	mov	r1, r9
    1e00:	9d00      	ldr	r5, [sp, #0]
    1e02:	040f      	lsls	r7, r1, #16
    1e04:	4642      	mov	r2, r8
    1e06:	4317      	orrs	r7, r2
    1e08:	042a      	lsls	r2, r5, #16
    1e0a:	0c12      	lsrs	r2, r2, #16
    1e0c:	043b      	lsls	r3, r7, #16
    1e0e:	0c2d      	lsrs	r5, r5, #16
    1e10:	0c1b      	lsrs	r3, r3, #16
    1e12:	0c38      	lsrs	r0, r7, #16
    1e14:	1c11      	adds	r1, r2, #0
    1e16:	4359      	muls	r1, r3
    1e18:	4342      	muls	r2, r0
    1e1a:	436b      	muls	r3, r5
    1e1c:	4368      	muls	r0, r5
    1e1e:	18d3      	adds	r3, r2, r3
    1e20:	0c0d      	lsrs	r5, r1, #16
    1e22:	195b      	adds	r3, r3, r5
    1e24:	468c      	mov	ip, r1
    1e26:	429a      	cmp	r2, r3
    1e28:	d902      	bls.n	1e30 <__divdi3+0x370>
    1e2a:	2280      	movs	r2, #128	; 0x80
    1e2c:	0252      	lsls	r2, r2, #9
    1e2e:	1880      	adds	r0, r0, r2
    1e30:	0c1d      	lsrs	r5, r3, #16
    1e32:	1940      	adds	r0, r0, r5
    1e34:	4583      	cmp	fp, r0
    1e36:	d30c      	bcc.n	1e52 <__divdi3+0x392>
    1e38:	d003      	beq.n	1e42 <__divdi3+0x382>
    1e3a:	2400      	movs	r4, #0
    1e3c:	e6b0      	b.n	1ba0 <__divdi3+0xe0>
    1e3e:	1c1c      	adds	r4, r3, #0
    1e40:	e689      	b.n	1b56 <__divdi3+0x96>
    1e42:	4665      	mov	r5, ip
    1e44:	042a      	lsls	r2, r5, #16
    1e46:	041b      	lsls	r3, r3, #16
    1e48:	0c12      	lsrs	r2, r2, #16
    1e4a:	189b      	adds	r3, r3, r2
    1e4c:	40a6      	lsls	r6, r4
    1e4e:	429e      	cmp	r6, r3
    1e50:	d2f3      	bcs.n	1e3a <__divdi3+0x37a>
    1e52:	3f01      	subs	r7, #1
    1e54:	2400      	movs	r4, #0
    1e56:	e6a3      	b.n	1ba0 <__divdi3+0xe0>
    1e58:	2400      	movs	r4, #0
    1e5a:	2701      	movs	r7, #1
    1e5c:	e6a0      	b.n	1ba0 <__divdi3+0xe0>
    1e5e:	4698      	mov	r8, r3
    1e60:	e7ca      	b.n	1df8 <__divdi3+0x338>
    1e62:	1c1c      	adds	r4, r3, #0
    1e64:	e76a      	b.n	1d3c <__divdi3+0x27c>
    1e66:	4699      	mov	r9, r3
    1e68:	e7a5      	b.n	1db6 <__divdi3+0x2f6>
    1e6a:	4699      	mov	r9, r3
    1e6c:	e746      	b.n	1cfc <__divdi3+0x23c>
    1e6e:	2202      	movs	r2, #2
    1e70:	4252      	negs	r2, r2
    1e72:	4491      	add	r9, r2
    1e74:	4441      	add	r1, r8
    1e76:	e6e0      	b.n	1c3a <__divdi3+0x17a>

00001e78 <__udivdi3>:
__udivdi3():
    1e78:	b5f0      	push	{r4, r5, r6, r7, lr}
    1e7a:	465f      	mov	r7, fp
    1e7c:	4656      	mov	r6, sl
    1e7e:	464d      	mov	r5, r9
    1e80:	4644      	mov	r4, r8
    1e82:	b4f0      	push	{r4, r5, r6, r7}
    1e84:	1c0d      	adds	r5, r1, #0
    1e86:	b085      	sub	sp, #20
    1e88:	1c06      	adds	r6, r0, #0
    1e8a:	4692      	mov	sl, r2
    1e8c:	4698      	mov	r8, r3
    1e8e:	9002      	str	r0, [sp, #8]
    1e90:	9101      	str	r1, [sp, #4]
    1e92:	9203      	str	r2, [sp, #12]
    1e94:	1c1f      	adds	r7, r3, #0
    1e96:	1c14      	adds	r4, r2, #0
    1e98:	4683      	mov	fp, r0
    1e9a:	46a9      	mov	r9, r5
    1e9c:	2b00      	cmp	r3, #0
    1e9e:	d159      	bne.n	1f54 <__udivdi3+0xdc>
    1ea0:	42aa      	cmp	r2, r5
    1ea2:	d969      	bls.n	1f78 <__udivdi3+0x100>
    1ea4:	1c10      	adds	r0, r2, #0
    1ea6:	f7ff fdcb 	bl	1a40 <__clzsi2>
    1eaa:	2800      	cmp	r0, #0
    1eac:	d00a      	beq.n	1ec4 <__udivdi3+0x4c>
    1eae:	2320      	movs	r3, #32
    1eb0:	1a1b      	subs	r3, r3, r0
    1eb2:	1c31      	adds	r1, r6, #0
    1eb4:	40d9      	lsrs	r1, r3
    1eb6:	4085      	lsls	r5, r0
    1eb8:	1c0b      	adds	r3, r1, #0
    1eba:	432b      	orrs	r3, r5
    1ebc:	4086      	lsls	r6, r0
    1ebe:	4084      	lsls	r4, r0
    1ec0:	4699      	mov	r9, r3
    1ec2:	46b3      	mov	fp, r6
    1ec4:	0c25      	lsrs	r5, r4, #16
    1ec6:	0423      	lsls	r3, r4, #16
    1ec8:	0c1b      	lsrs	r3, r3, #16
    1eca:	1c29      	adds	r1, r5, #0
    1ecc:	4648      	mov	r0, r9
    1ece:	4698      	mov	r8, r3
    1ed0:	f7fe fcbc 	bl	84c <__aeabi_uidiv>
    1ed4:	4646      	mov	r6, r8
    1ed6:	1c07      	adds	r7, r0, #0
    1ed8:	4346      	muls	r6, r0
    1eda:	1c29      	adds	r1, r5, #0
    1edc:	4648      	mov	r0, r9
    1ede:	f7fe fcf9 	bl	8d4 <__aeabi_uidivmod>
    1ee2:	465a      	mov	r2, fp
    1ee4:	0409      	lsls	r1, r1, #16
    1ee6:	0c13      	lsrs	r3, r2, #16
    1ee8:	4319      	orrs	r1, r3
    1eea:	428e      	cmp	r6, r1
    1eec:	d909      	bls.n	1f02 <__udivdi3+0x8a>
    1eee:	1909      	adds	r1, r1, r4
    1ef0:	1e7b      	subs	r3, r7, #1
    1ef2:	428c      	cmp	r4, r1
    1ef4:	d900      	bls.n	1ef8 <__udivdi3+0x80>
    1ef6:	e157      	b.n	21a8 <__udivdi3+0x330>
    1ef8:	428e      	cmp	r6, r1
    1efa:	d800      	bhi.n	1efe <__udivdi3+0x86>
    1efc:	e154      	b.n	21a8 <__udivdi3+0x330>
    1efe:	3f02      	subs	r7, #2
    1f00:	1909      	adds	r1, r1, r4
    1f02:	1b89      	subs	r1, r1, r6
    1f04:	4689      	mov	r9, r1
    1f06:	1c08      	adds	r0, r1, #0
    1f08:	1c29      	adds	r1, r5, #0
    1f0a:	f7fe fc9f 	bl	84c <__aeabi_uidiv>
    1f0e:	4643      	mov	r3, r8
    1f10:	4343      	muls	r3, r0
    1f12:	1c06      	adds	r6, r0, #0
    1f14:	1c29      	adds	r1, r5, #0
    1f16:	4648      	mov	r0, r9
    1f18:	4698      	mov	r8, r3
    1f1a:	f7fe fcdb 	bl	8d4 <__aeabi_uidivmod>
    1f1e:	465a      	mov	r2, fp
    1f20:	0413      	lsls	r3, r2, #16
    1f22:	0409      	lsls	r1, r1, #16
    1f24:	0c1b      	lsrs	r3, r3, #16
    1f26:	4319      	orrs	r1, r3
    1f28:	4588      	cmp	r8, r1
    1f2a:	d908      	bls.n	1f3e <__udivdi3+0xc6>
    1f2c:	1909      	adds	r1, r1, r4
    1f2e:	1e73      	subs	r3, r6, #1
    1f30:	428c      	cmp	r4, r1
    1f32:	d900      	bls.n	1f36 <__udivdi3+0xbe>
    1f34:	e136      	b.n	21a4 <__udivdi3+0x32c>
    1f36:	3e02      	subs	r6, #2
    1f38:	4588      	cmp	r8, r1
    1f3a:	d800      	bhi.n	1f3e <__udivdi3+0xc6>
    1f3c:	e132      	b.n	21a4 <__udivdi3+0x32c>
    1f3e:	0438      	lsls	r0, r7, #16
    1f40:	4330      	orrs	r0, r6
    1f42:	2700      	movs	r7, #0
    1f44:	1c39      	adds	r1, r7, #0
    1f46:	b005      	add	sp, #20
    1f48:	bc3c      	pop	{r2, r3, r4, r5}
    1f4a:	4690      	mov	r8, r2
    1f4c:	4699      	mov	r9, r3
    1f4e:	46a2      	mov	sl, r4
    1f50:	46ab      	mov	fp, r5
    1f52:	bdf0      	pop	{r4, r5, r6, r7, pc}
    1f54:	9a01      	ldr	r2, [sp, #4]
    1f56:	4293      	cmp	r3, r2
    1f58:	d862      	bhi.n	2020 <__udivdi3+0x1a8>
    1f5a:	1c18      	adds	r0, r3, #0
    1f5c:	f7ff fd70 	bl	1a40 <__clzsi2>
    1f60:	1e04      	subs	r4, r0, #0
    1f62:	d160      	bne.n	2026 <__udivdi3+0x1ae>
    1f64:	9b01      	ldr	r3, [sp, #4]
    1f66:	429f      	cmp	r7, r3
    1f68:	d200      	bcs.n	1f6c <__udivdi3+0xf4>
    1f6a:	e12c      	b.n	21c6 <__udivdi3+0x34e>
    1f6c:	9f02      	ldr	r7, [sp, #8]
    1f6e:	9903      	ldr	r1, [sp, #12]
    1f70:	428f      	cmp	r7, r1
    1f72:	4160      	adcs	r0, r4
    1f74:	2700      	movs	r7, #0
    1f76:	e7e5      	b.n	1f44 <__udivdi3+0xcc>
    1f78:	2a00      	cmp	r2, #0
    1f7a:	d104      	bne.n	1f86 <__udivdi3+0x10e>
    1f7c:	2001      	movs	r0, #1
    1f7e:	2100      	movs	r1, #0
    1f80:	f7fe fc64 	bl	84c <__aeabi_uidiv>
    1f84:	1c04      	adds	r4, r0, #0
    1f86:	1c20      	adds	r0, r4, #0
    1f88:	f7ff fd5a 	bl	1a40 <__clzsi2>
    1f8c:	2800      	cmp	r0, #0
    1f8e:	d000      	beq.n	1f92 <__udivdi3+0x11a>
    1f90:	e0b9      	b.n	2106 <__udivdi3+0x28e>
    1f92:	0423      	lsls	r3, r4, #16
    1f94:	1b2d      	subs	r5, r5, r4
    1f96:	0c1b      	lsrs	r3, r3, #16
    1f98:	46a9      	mov	r9, r5
    1f9a:	0c26      	lsrs	r6, r4, #16
    1f9c:	4698      	mov	r8, r3
    1f9e:	2701      	movs	r7, #1
    1fa0:	1c31      	adds	r1, r6, #0
    1fa2:	4648      	mov	r0, r9
    1fa4:	f7fe fc52 	bl	84c <__aeabi_uidiv>
    1fa8:	4641      	mov	r1, r8
    1faa:	4341      	muls	r1, r0
    1fac:	1c05      	adds	r5, r0, #0
    1fae:	468a      	mov	sl, r1
    1fb0:	4648      	mov	r0, r9
    1fb2:	1c31      	adds	r1, r6, #0
    1fb4:	f7fe fc8e 	bl	8d4 <__aeabi_uidivmod>
    1fb8:	465a      	mov	r2, fp
    1fba:	0408      	lsls	r0, r1, #16
    1fbc:	0c13      	lsrs	r3, r2, #16
    1fbe:	4318      	orrs	r0, r3
    1fc0:	4582      	cmp	sl, r0
    1fc2:	d907      	bls.n	1fd4 <__udivdi3+0x15c>
    1fc4:	1900      	adds	r0, r0, r4
    1fc6:	1e6b      	subs	r3, r5, #1
    1fc8:	4284      	cmp	r4, r0
    1fca:	d802      	bhi.n	1fd2 <__udivdi3+0x15a>
    1fcc:	4582      	cmp	sl, r0
    1fce:	d900      	bls.n	1fd2 <__udivdi3+0x15a>
    1fd0:	e110      	b.n	21f4 <__udivdi3+0x37c>
    1fd2:	1c1d      	adds	r5, r3, #0
    1fd4:	4653      	mov	r3, sl
    1fd6:	1ac3      	subs	r3, r0, r3
    1fd8:	1c18      	adds	r0, r3, #0
    1fda:	1c31      	adds	r1, r6, #0
    1fdc:	469a      	mov	sl, r3
    1fde:	f7fe fc35 	bl	84c <__aeabi_uidiv>
    1fe2:	4641      	mov	r1, r8
    1fe4:	4341      	muls	r1, r0
    1fe6:	4681      	mov	r9, r0
    1fe8:	4688      	mov	r8, r1
    1fea:	4650      	mov	r0, sl
    1fec:	1c31      	adds	r1, r6, #0
    1fee:	f7fe fc71 	bl	8d4 <__aeabi_uidivmod>
    1ff2:	465a      	mov	r2, fp
    1ff4:	0413      	lsls	r3, r2, #16
    1ff6:	0409      	lsls	r1, r1, #16
    1ff8:	0c1b      	lsrs	r3, r3, #16
    1ffa:	4319      	orrs	r1, r3
    1ffc:	4588      	cmp	r8, r1
    1ffe:	d90b      	bls.n	2018 <__udivdi3+0x1a0>
    2000:	464b      	mov	r3, r9
    2002:	1909      	adds	r1, r1, r4
    2004:	3b01      	subs	r3, #1
    2006:	428c      	cmp	r4, r1
    2008:	d900      	bls.n	200c <__udivdi3+0x194>
    200a:	e0cf      	b.n	21ac <__udivdi3+0x334>
    200c:	4588      	cmp	r8, r1
    200e:	d800      	bhi.n	2012 <__udivdi3+0x19a>
    2010:	e0cc      	b.n	21ac <__udivdi3+0x334>
    2012:	2302      	movs	r3, #2
    2014:	425b      	negs	r3, r3
    2016:	4499      	add	r9, r3
    2018:	0428      	lsls	r0, r5, #16
    201a:	4649      	mov	r1, r9
    201c:	4308      	orrs	r0, r1
    201e:	e791      	b.n	1f44 <__udivdi3+0xcc>
    2020:	2700      	movs	r7, #0
    2022:	2000      	movs	r0, #0
    2024:	e78e      	b.n	1f44 <__udivdi3+0xcc>
    2026:	2320      	movs	r3, #32
    2028:	1a1b      	subs	r3, r3, r0
    202a:	4642      	mov	r2, r8
    202c:	4657      	mov	r7, sl
    202e:	4082      	lsls	r2, r0
    2030:	40df      	lsrs	r7, r3
    2032:	4317      	orrs	r7, r2
    2034:	4652      	mov	r2, sl
    2036:	4082      	lsls	r2, r0
    2038:	9201      	str	r2, [sp, #4]
    203a:	1c32      	adds	r2, r6, #0
    203c:	40da      	lsrs	r2, r3
    203e:	1c29      	adds	r1, r5, #0
    2040:	40d9      	lsrs	r1, r3
    2042:	4085      	lsls	r5, r0
    2044:	1c13      	adds	r3, r2, #0
    2046:	432b      	orrs	r3, r5
    2048:	9302      	str	r3, [sp, #8]
    204a:	0c3d      	lsrs	r5, r7, #16
    204c:	043b      	lsls	r3, r7, #16
    204e:	0c1b      	lsrs	r3, r3, #16
    2050:	4688      	mov	r8, r1
    2052:	1c08      	adds	r0, r1, #0
    2054:	1c29      	adds	r1, r5, #0
    2056:	469a      	mov	sl, r3
    2058:	f7fe fbf8 	bl	84c <__aeabi_uidiv>
    205c:	4653      	mov	r3, sl
    205e:	4343      	muls	r3, r0
    2060:	4681      	mov	r9, r0
    2062:	1c29      	adds	r1, r5, #0
    2064:	4640      	mov	r0, r8
    2066:	469b      	mov	fp, r3
    2068:	f7fe fc34 	bl	8d4 <__aeabi_uidivmod>
    206c:	9a02      	ldr	r2, [sp, #8]
    206e:	0409      	lsls	r1, r1, #16
    2070:	0c13      	lsrs	r3, r2, #16
    2072:	4319      	orrs	r1, r3
    2074:	458b      	cmp	fp, r1
    2076:	d906      	bls.n	2086 <__udivdi3+0x20e>
    2078:	464b      	mov	r3, r9
    207a:	19c9      	adds	r1, r1, r7
    207c:	3b01      	subs	r3, #1
    207e:	428f      	cmp	r7, r1
    2080:	d800      	bhi.n	2084 <__udivdi3+0x20c>
    2082:	e0ab      	b.n	21dc <__udivdi3+0x364>
    2084:	4699      	mov	r9, r3
    2086:	465a      	mov	r2, fp
    2088:	1a8a      	subs	r2, r1, r2
    208a:	1c10      	adds	r0, r2, #0
    208c:	1c29      	adds	r1, r5, #0
    208e:	4693      	mov	fp, r2
    2090:	f7fe fbdc 	bl	84c <__aeabi_uidiv>
    2094:	4653      	mov	r3, sl
    2096:	4343      	muls	r3, r0
    2098:	1c29      	adds	r1, r5, #0
    209a:	4680      	mov	r8, r0
    209c:	4658      	mov	r0, fp
    209e:	469a      	mov	sl, r3
    20a0:	f7fe fc18 	bl	8d4 <__aeabi_uidivmod>
    20a4:	9a02      	ldr	r2, [sp, #8]
    20a6:	0409      	lsls	r1, r1, #16
    20a8:	0415      	lsls	r5, r2, #16
    20aa:	0c2d      	lsrs	r5, r5, #16
    20ac:	4329      	orrs	r1, r5
    20ae:	458a      	cmp	sl, r1
    20b0:	d906      	bls.n	20c0 <__udivdi3+0x248>
    20b2:	4643      	mov	r3, r8
    20b4:	19c9      	adds	r1, r1, r7
    20b6:	3b01      	subs	r3, #1
    20b8:	428f      	cmp	r7, r1
    20ba:	d800      	bhi.n	20be <__udivdi3+0x246>
    20bc:	e086      	b.n	21cc <__udivdi3+0x354>
    20be:	4698      	mov	r8, r3
    20c0:	4657      	mov	r7, sl
    20c2:	1bcf      	subs	r7, r1, r7
    20c4:	46ba      	mov	sl, r7
    20c6:	4649      	mov	r1, r9
    20c8:	9f01      	ldr	r7, [sp, #4]
    20ca:	0408      	lsls	r0, r1, #16
    20cc:	4642      	mov	r2, r8
    20ce:	4310      	orrs	r0, r2
    20d0:	043d      	lsls	r5, r7, #16
    20d2:	0c2d      	lsrs	r5, r5, #16
    20d4:	0403      	lsls	r3, r0, #16
    20d6:	0c3f      	lsrs	r7, r7, #16
    20d8:	0c1b      	lsrs	r3, r3, #16
    20da:	0c02      	lsrs	r2, r0, #16
    20dc:	1c29      	adds	r1, r5, #0
    20de:	4359      	muls	r1, r3
    20e0:	4355      	muls	r5, r2
    20e2:	437b      	muls	r3, r7
    20e4:	437a      	muls	r2, r7
    20e6:	18eb      	adds	r3, r5, r3
    20e8:	0c0f      	lsrs	r7, r1, #16
    20ea:	19db      	adds	r3, r3, r7
    20ec:	468c      	mov	ip, r1
    20ee:	429d      	cmp	r5, r3
    20f0:	d902      	bls.n	20f8 <__udivdi3+0x280>
    20f2:	2780      	movs	r7, #128	; 0x80
    20f4:	027f      	lsls	r7, r7, #9
    20f6:	19d2      	adds	r2, r2, r7
    20f8:	0c1d      	lsrs	r5, r3, #16
    20fa:	1952      	adds	r2, r2, r5
    20fc:	4592      	cmp	sl, r2
    20fe:	d35f      	bcc.n	21c0 <__udivdi3+0x348>
    2100:	d056      	beq.n	21b0 <__udivdi3+0x338>
    2102:	2700      	movs	r7, #0
    2104:	e71e      	b.n	1f44 <__udivdi3+0xcc>
    2106:	2320      	movs	r3, #32
    2108:	1a1b      	subs	r3, r3, r0
    210a:	1c31      	adds	r1, r6, #0
    210c:	1c2f      	adds	r7, r5, #0
    210e:	40d9      	lsrs	r1, r3
    2110:	40df      	lsrs	r7, r3
    2112:	4085      	lsls	r5, r0
    2114:	1c0b      	adds	r3, r1, #0
    2116:	4084      	lsls	r4, r0
    2118:	432b      	orrs	r3, r5
    211a:	4086      	lsls	r6, r0
    211c:	9301      	str	r3, [sp, #4]
    211e:	46b3      	mov	fp, r6
    2120:	0423      	lsls	r3, r4, #16
    2122:	0c26      	lsrs	r6, r4, #16
    2124:	0c1b      	lsrs	r3, r3, #16
    2126:	1c38      	adds	r0, r7, #0
    2128:	1c31      	adds	r1, r6, #0
    212a:	4698      	mov	r8, r3
    212c:	f7fe fb8e 	bl	84c <__aeabi_uidiv>
    2130:	4642      	mov	r2, r8
    2132:	4342      	muls	r2, r0
    2134:	1c05      	adds	r5, r0, #0
    2136:	1c31      	adds	r1, r6, #0
    2138:	1c38      	adds	r0, r7, #0
    213a:	4691      	mov	r9, r2
    213c:	f7fe fbca 	bl	8d4 <__aeabi_uidivmod>
    2140:	9f01      	ldr	r7, [sp, #4]
    2142:	0409      	lsls	r1, r1, #16
    2144:	0c3b      	lsrs	r3, r7, #16
    2146:	4319      	orrs	r1, r3
    2148:	4589      	cmp	r9, r1
    214a:	d907      	bls.n	215c <__udivdi3+0x2e4>
    214c:	1909      	adds	r1, r1, r4
    214e:	1e6b      	subs	r3, r5, #1
    2150:	428c      	cmp	r4, r1
    2152:	d84d      	bhi.n	21f0 <__udivdi3+0x378>
    2154:	4589      	cmp	r9, r1
    2156:	d94b      	bls.n	21f0 <__udivdi3+0x378>
    2158:	3d02      	subs	r5, #2
    215a:	1909      	adds	r1, r1, r4
    215c:	464a      	mov	r2, r9
    215e:	1a8a      	subs	r2, r1, r2
    2160:	1c10      	adds	r0, r2, #0
    2162:	1c31      	adds	r1, r6, #0
    2164:	4692      	mov	sl, r2
    2166:	f7fe fb71 	bl	84c <__aeabi_uidiv>
    216a:	4643      	mov	r3, r8
    216c:	4343      	muls	r3, r0
    216e:	1c07      	adds	r7, r0, #0
    2170:	1c31      	adds	r1, r6, #0
    2172:	4650      	mov	r0, sl
    2174:	4699      	mov	r9, r3
    2176:	f7fe fbad 	bl	8d4 <__aeabi_uidivmod>
    217a:	9a01      	ldr	r2, [sp, #4]
    217c:	0409      	lsls	r1, r1, #16
    217e:	0413      	lsls	r3, r2, #16
    2180:	0c1b      	lsrs	r3, r3, #16
    2182:	4319      	orrs	r1, r3
    2184:	4589      	cmp	r9, r1
    2186:	d907      	bls.n	2198 <__udivdi3+0x320>
    2188:	1909      	adds	r1, r1, r4
    218a:	1e7b      	subs	r3, r7, #1
    218c:	428c      	cmp	r4, r1
    218e:	d82d      	bhi.n	21ec <__udivdi3+0x374>
    2190:	4589      	cmp	r9, r1
    2192:	d92b      	bls.n	21ec <__udivdi3+0x374>
    2194:	3f02      	subs	r7, #2
    2196:	1909      	adds	r1, r1, r4
    2198:	464b      	mov	r3, r9
    219a:	1acb      	subs	r3, r1, r3
    219c:	042d      	lsls	r5, r5, #16
    219e:	4699      	mov	r9, r3
    21a0:	432f      	orrs	r7, r5
    21a2:	e6fd      	b.n	1fa0 <__udivdi3+0x128>
    21a4:	1c1e      	adds	r6, r3, #0
    21a6:	e6ca      	b.n	1f3e <__udivdi3+0xc6>
    21a8:	1c1f      	adds	r7, r3, #0
    21aa:	e6aa      	b.n	1f02 <__udivdi3+0x8a>
    21ac:	4699      	mov	r9, r3
    21ae:	e733      	b.n	2018 <__udivdi3+0x1a0>
    21b0:	4661      	mov	r1, ip
    21b2:	040a      	lsls	r2, r1, #16
    21b4:	041b      	lsls	r3, r3, #16
    21b6:	0c12      	lsrs	r2, r2, #16
    21b8:	189b      	adds	r3, r3, r2
    21ba:	40a6      	lsls	r6, r4
    21bc:	429e      	cmp	r6, r3
    21be:	d2a0      	bcs.n	2102 <__udivdi3+0x28a>
    21c0:	3801      	subs	r0, #1
    21c2:	2700      	movs	r7, #0
    21c4:	e6be      	b.n	1f44 <__udivdi3+0xcc>
    21c6:	2700      	movs	r7, #0
    21c8:	2001      	movs	r0, #1
    21ca:	e6bb      	b.n	1f44 <__udivdi3+0xcc>
    21cc:	458a      	cmp	sl, r1
    21ce:	d800      	bhi.n	21d2 <__udivdi3+0x35a>
    21d0:	e775      	b.n	20be <__udivdi3+0x246>
    21d2:	2302      	movs	r3, #2
    21d4:	425b      	negs	r3, r3
    21d6:	4498      	add	r8, r3
    21d8:	19c9      	adds	r1, r1, r7
    21da:	e771      	b.n	20c0 <__udivdi3+0x248>
    21dc:	458b      	cmp	fp, r1
    21de:	d800      	bhi.n	21e2 <__udivdi3+0x36a>
    21e0:	e750      	b.n	2084 <__udivdi3+0x20c>
    21e2:	2302      	movs	r3, #2
    21e4:	425b      	negs	r3, r3
    21e6:	4499      	add	r9, r3
    21e8:	19c9      	adds	r1, r1, r7
    21ea:	e74c      	b.n	2086 <__udivdi3+0x20e>
    21ec:	1c1f      	adds	r7, r3, #0
    21ee:	e7d3      	b.n	2198 <__udivdi3+0x320>
    21f0:	1c1d      	adds	r5, r3, #0
    21f2:	e7b3      	b.n	215c <__udivdi3+0x2e4>
    21f4:	3d02      	subs	r5, #2
    21f6:	1900      	adds	r0, r0, r4
    21f8:	e6ec      	b.n	1fd4 <__udivdi3+0x15c>
    21fa:	46c0      	nop			; (mov r8, r8)

000021fc <UART0_IRQHandler>:
UART0_IRQHandler():
E:\work-201605\2012-2016 M0+1-20160318\M0+2-20160325\06-User\SD-KL-CD(V6.5)-20160501\02-Software\KL25-program\ch06-UART-20160501\KL25_UART\Debug/../08_Source/isr.c:13
#include "includes.h"

//========================中断函数服务例程===============================
//串口0接收中断服务例程
void UART0_IRQHandler(void)
{
    21fc:	b590      	push	{r4, r7, lr}
    21fe:	b083      	sub	sp, #12
    2200:	af00      	add	r7, sp, #0
__disable_irq():
E:/work-201605/2012-2016 M0+1-20160318/M0+2-20160325/06-User/SD-KL-CD(V6.5)-20160501/02-Software/KL25-program/ch06-UART-20160501/KL25_UART/02_CPU/core_cmFunc.h:344
  This function disables IRQ interrupts by setting the I-bit in the CPSR.
  Can only be executed in Privileged modes.
 */
__attribute__( ( always_inline ) ) __STATIC_INLINE void __disable_irq(void)
{
  __ASM volatile ("cpsid i" : : : "memory");
    2202:	b672      	cpsid	i
UART0_IRQHandler():
E:\work-201605\2012-2016 M0+1-20160318\M0+2-20160325\06-User\SD-KL-CD(V6.5)-20160501\02-Software\KL25-program\ch06-UART-20160501\KL25_UART\Debug/../08_Source/isr.c:17
    uint_8 ch;
    uint_8 flag;
    DISABLE_INTERRUPTS;    //关总中断
    if(uart_get_re_int(UART_0))
    2204:	2000      	movs	r0, #0
    2206:	f001 fbbf 	bl	3988 <uart_get_re_int>
    220a:	1c03      	adds	r3, r0, #0
    220c:	2b00      	cmp	r3, #0
    220e:	d011      	beq.n	2234 <UART0_IRQHandler+0x38>
E:\work-201605\2012-2016 M0+1-20160318\M0+2-20160325\06-User\SD-KL-CD(V6.5)-20160501\02-Software\KL25-program\ch06-UART-20160501\KL25_UART\Debug/../08_Source/isr.c:19
    {
        ch = uart_re1(UART_0, &flag);    //调用接收一个字节的函数，清接收中断位
    2210:	1dfc      	adds	r4, r7, #7
    2212:	1dbb      	adds	r3, r7, #6
    2214:	2000      	movs	r0, #0
    2216:	1c19      	adds	r1, r3, #0
    2218:	f001 fb14 	bl	3844 <uart_re1>
    221c:	1c03      	adds	r3, r0, #0
    221e:	7023      	strb	r3, [r4, #0]
E:\work-201605\2012-2016 M0+1-20160318\M0+2-20160325\06-User\SD-KL-CD(V6.5)-20160501\02-Software\KL25-program\ch06-UART-20160501\KL25_UART\Debug/../08_Source/isr.c:20
        if(flag)
    2220:	1dbb      	adds	r3, r7, #6
    2222:	781b      	ldrb	r3, [r3, #0]
    2224:	2b00      	cmp	r3, #0
    2226:	d005      	beq.n	2234 <UART0_IRQHandler+0x38>
E:\work-201605\2012-2016 M0+1-20160318\M0+2-20160325\06-User\SD-KL-CD(V6.5)-20160501\02-Software\KL25-program\ch06-UART-20160501\KL25_UART\Debug/../08_Source/isr.c:22
        {
            uart_send1(UART_0, ch);     //向原串口发回一个字节
    2228:	1dfb      	adds	r3, r7, #7
    222a:	781b      	ldrb	r3, [r3, #0]
    222c:	2000      	movs	r0, #0
    222e:	1c19      	adds	r1, r3, #0
    2230:	f001 fa72 	bl	3718 <uart_send1>
__enable_irq():
E:/work-201605/2012-2016 M0+1-20160318/M0+2-20160325/06-User/SD-KL-CD(V6.5)-20160501/02-Software/KL25-program/ch06-UART-20160501/KL25_UART/02_CPU/core_cmFunc.h:333
  This function enables IRQ interrupts by clearing the I-bit in the CPSR.
  Can only be executed in Privileged modes.
 */
__attribute__( ( always_inline ) ) __STATIC_INLINE void __enable_irq(void)
{
  __ASM volatile ("cpsie i" : : : "memory");
    2234:	b662      	cpsie	i
UART0_IRQHandler():
E:\work-201605\2012-2016 M0+1-20160318\M0+2-20160325\06-User\SD-KL-CD(V6.5)-20160501\02-Software\KL25-program\ch06-UART-20160501\KL25_UART\Debug/../08_Source/isr.c:26
        }
    }
    ENABLE_INTERRUPTS;
}
    2236:	46bd      	mov	sp, r7
    2238:	b003      	add	sp, #12
    223a:	bd90      	pop	{r4, r7, pc}

0000223c <UART1_IRQHandler>:
UART1_IRQHandler():
E:\work-201605\2012-2016 M0+1-20160318\M0+2-20160325\06-User\SD-KL-CD(V6.5)-20160501\02-Software\KL25-program\ch06-UART-20160501\KL25_UART\Debug/../08_Source/isr.c:30

//串口1接收中断服务例程
void UART1_IRQHandler(void)
{
    223c:	b590      	push	{r4, r7, lr}
    223e:	b083      	sub	sp, #12
    2240:	af00      	add	r7, sp, #0
__disable_irq():
E:/work-201605/2012-2016 M0+1-20160318/M0+2-20160325/06-User/SD-KL-CD(V6.5)-20160501/02-Software/KL25-program/ch06-UART-20160501/KL25_UART/02_CPU/core_cmFunc.h:344
  This function disables IRQ interrupts by setting the I-bit in the CPSR.
  Can only be executed in Privileged modes.
 */
__attribute__( ( always_inline ) ) __STATIC_INLINE void __disable_irq(void)
{
  __ASM volatile ("cpsid i" : : : "memory");
    2242:	b672      	cpsid	i
UART1_IRQHandler():
E:\work-201605\2012-2016 M0+1-20160318\M0+2-20160325\06-User\SD-KL-CD(V6.5)-20160501\02-Software\KL25-program\ch06-UART-20160501\KL25_UART\Debug/../08_Source/isr.c:34
    uint_8 ch;
    uint_8 flag;
    DISABLE_INTERRUPTS;    //关总中断
    if(uart_get_re_int(UART_1))
    2244:	2001      	movs	r0, #1
    2246:	f001 fb9f 	bl	3988 <uart_get_re_int>
    224a:	1c03      	adds	r3, r0, #0
    224c:	2b00      	cmp	r3, #0
    224e:	d011      	beq.n	2274 <UART1_IRQHandler+0x38>
E:\work-201605\2012-2016 M0+1-20160318\M0+2-20160325\06-User\SD-KL-CD(V6.5)-20160501\02-Software\KL25-program\ch06-UART-20160501\KL25_UART\Debug/../08_Source/isr.c:36
    {
        ch = uart_re1(UART_1, &flag);    //调用接收一个字节的函数，清接收中断位
    2250:	1dfc      	adds	r4, r7, #7
    2252:	1dbb      	adds	r3, r7, #6
    2254:	2001      	movs	r0, #1
    2256:	1c19      	adds	r1, r3, #0
    2258:	f001 faf4 	bl	3844 <uart_re1>
    225c:	1c03      	adds	r3, r0, #0
    225e:	7023      	strb	r3, [r4, #0]
E:\work-201605\2012-2016 M0+1-20160318\M0+2-20160325\06-User\SD-KL-CD(V6.5)-20160501\02-Software\KL25-program\ch06-UART-20160501\KL25_UART\Debug/../08_Source/isr.c:37
        if(flag)
    2260:	1dbb      	adds	r3, r7, #6
    2262:	781b      	ldrb	r3, [r3, #0]
    2264:	2b00      	cmp	r3, #0
    2266:	d005      	beq.n	2274 <UART1_IRQHandler+0x38>
E:\work-201605\2012-2016 M0+1-20160318\M0+2-20160325\06-User\SD-KL-CD(V6.5)-20160501\02-Software\KL25-program\ch06-UART-20160501\KL25_UART\Debug/../08_Source/isr.c:39
        {
            uart_send1(UART_1, ch);     //向原串口发回一个字节
    2268:	1dfb      	adds	r3, r7, #7
    226a:	781b      	ldrb	r3, [r3, #0]
    226c:	2001      	movs	r0, #1
    226e:	1c19      	adds	r1, r3, #0
    2270:	f001 fa52 	bl	3718 <uart_send1>
__enable_irq():
E:/work-201605/2012-2016 M0+1-20160318/M0+2-20160325/06-User/SD-KL-CD(V6.5)-20160501/02-Software/KL25-program/ch06-UART-20160501/KL25_UART/02_CPU/core_cmFunc.h:333
  This function enables IRQ interrupts by clearing the I-bit in the CPSR.
  Can only be executed in Privileged modes.
 */
__attribute__( ( always_inline ) ) __STATIC_INLINE void __enable_irq(void)
{
  __ASM volatile ("cpsie i" : : : "memory");
    2274:	b662      	cpsie	i
UART1_IRQHandler():
E:\work-201605\2012-2016 M0+1-20160318\M0+2-20160325\06-User\SD-KL-CD(V6.5)-20160501\02-Software\KL25-program\ch06-UART-20160501\KL25_UART\Debug/../08_Source/isr.c:43
        }
    }
    ENABLE_INTERRUPTS;
}
    2276:	46bd      	mov	sp, r7
    2278:	b003      	add	sp, #12
    227a:	bd90      	pop	{r4, r7, pc}

0000227c <UART2_IRQHandler>:
UART2_IRQHandler():
E:\work-201605\2012-2016 M0+1-20160318\M0+2-20160325\06-User\SD-KL-CD(V6.5)-20160501\02-Software\KL25-program\ch06-UART-20160501\KL25_UART\Debug/../08_Source/isr.c:47

//串口2接收中断服务例程
void UART2_IRQHandler(void)
{
    227c:	b590      	push	{r4, r7, lr}
    227e:	b083      	sub	sp, #12
    2280:	af00      	add	r7, sp, #0
__disable_irq():
E:/work-201605/2012-2016 M0+1-20160318/M0+2-20160325/06-User/SD-KL-CD(V6.5)-20160501/02-Software/KL25-program/ch06-UART-20160501/KL25_UART/02_CPU/core_cmFunc.h:344
  This function disables IRQ interrupts by setting the I-bit in the CPSR.
  Can only be executed in Privileged modes.
 */
__attribute__( ( always_inline ) ) __STATIC_INLINE void __disable_irq(void)
{
  __ASM volatile ("cpsid i" : : : "memory");
    2282:	b672      	cpsid	i
UART2_IRQHandler():
E:\work-201605\2012-2016 M0+1-20160318\M0+2-20160325\06-User\SD-KL-CD(V6.5)-20160501\02-Software\KL25-program\ch06-UART-20160501\KL25_UART\Debug/../08_Source/isr.c:51
    uint_8 ch;
    uint_8 flag;
    DISABLE_INTERRUPTS;    //关总中断
    if(uart_get_re_int(UART_2))
    2284:	2002      	movs	r0, #2
    2286:	f001 fb7f 	bl	3988 <uart_get_re_int>
    228a:	1c03      	adds	r3, r0, #0
    228c:	2b00      	cmp	r3, #0
    228e:	d011      	beq.n	22b4 <UART2_IRQHandler+0x38>
E:\work-201605\2012-2016 M0+1-20160318\M0+2-20160325\06-User\SD-KL-CD(V6.5)-20160501\02-Software\KL25-program\ch06-UART-20160501\KL25_UART\Debug/../08_Source/isr.c:53
    {
        ch = uart_re1(UART_2, &flag);    //调用接收一个字节的函数，清接收中断位
    2290:	1dfc      	adds	r4, r7, #7
    2292:	1dbb      	adds	r3, r7, #6
    2294:	2002      	movs	r0, #2
    2296:	1c19      	adds	r1, r3, #0
    2298:	f001 fad4 	bl	3844 <uart_re1>
    229c:	1c03      	adds	r3, r0, #0
    229e:	7023      	strb	r3, [r4, #0]
E:\work-201605\2012-2016 M0+1-20160318\M0+2-20160325\06-User\SD-KL-CD(V6.5)-20160501\02-Software\KL25-program\ch06-UART-20160501\KL25_UART\Debug/../08_Source/isr.c:54
        if(flag)
    22a0:	1dbb      	adds	r3, r7, #6
    22a2:	781b      	ldrb	r3, [r3, #0]
    22a4:	2b00      	cmp	r3, #0
    22a6:	d005      	beq.n	22b4 <UART2_IRQHandler+0x38>
E:\work-201605\2012-2016 M0+1-20160318\M0+2-20160325\06-User\SD-KL-CD(V6.5)-20160501\02-Software\KL25-program\ch06-UART-20160501\KL25_UART\Debug/../08_Source/isr.c:56
        {
            uart_send1(UART_2, ch);     //向原串口发回一个字节
    22a8:	1dfb      	adds	r3, r7, #7
    22aa:	781b      	ldrb	r3, [r3, #0]
    22ac:	2002      	movs	r0, #2
    22ae:	1c19      	adds	r1, r3, #0
    22b0:	f001 fa32 	bl	3718 <uart_send1>
__enable_irq():
E:/work-201605/2012-2016 M0+1-20160318/M0+2-20160325/06-User/SD-KL-CD(V6.5)-20160501/02-Software/KL25-program/ch06-UART-20160501/KL25_UART/02_CPU/core_cmFunc.h:333
  This function enables IRQ interrupts by clearing the I-bit in the CPSR.
  Can only be executed in Privileged modes.
 */
__attribute__( ( always_inline ) ) __STATIC_INLINE void __enable_irq(void)
{
  __ASM volatile ("cpsie i" : : : "memory");
    22b4:	b662      	cpsie	i
UART2_IRQHandler():
E:\work-201605\2012-2016 M0+1-20160318\M0+2-20160325\06-User\SD-KL-CD(V6.5)-20160501\02-Software\KL25-program\ch06-UART-20160501\KL25_UART\Debug/../08_Source/isr.c:60
        }
    }
    ENABLE_INTERRUPTS;
}
    22b6:	46bd      	mov	sp, r7
    22b8:	b003      	add	sp, #12
    22ba:	bd90      	pop	{r4, r7, pc}

000022bc <main>:
main():
E:\work-201605\2012-2016 M0+1-20160318\M0+2-20160325\06-User\SD-KL-CD(V6.5)-20160501\02-Software\KL25-program\ch06-UART-20160501\KL25_UART\Debug/../08_Source/main.c:8

#include "includes.h"   //包含总头文件


int main(void)
{
    22bc:	b580      	push	{r7, lr}
    22be:	b082      	sub	sp, #8
    22c0:	af00      	add	r7, sp, #0
__disable_irq():
E:/work-201605/2012-2016 M0+1-20160318/M0+2-20160325/06-User/SD-KL-CD(V6.5)-20160501/02-Software/KL25-program/ch06-UART-20160501/KL25_UART/02_CPU/core_cmFunc.h:344
  This function disables IRQ interrupts by setting the I-bit in the CPSR.
  Can only be executed in Privileged modes.
 */
__attribute__( ( always_inline ) ) __STATIC_INLINE void __disable_irq(void)
{
  __ASM volatile ("cpsid i" : : : "memory");
    22c2:	b672      	cpsid	i
main():
E:\work-201605\2012-2016 M0+1-20160318\M0+2-20160325\06-User\SD-KL-CD(V6.5)-20160501\02-Software\KL25-program\ch06-UART-20160501\KL25_UART\Debug/../08_Source/main.c:17

    //2. 关总中断
    DISABLE_INTERRUPTS;

    //3. 初始化外设模块
    light_init(LIGHT_BLUE, LIGHT_ON);  //蓝灯初始化
    22c4:	230a      	movs	r3, #10
    22c6:	33ff      	adds	r3, #255	; 0xff
    22c8:	1c18      	adds	r0, r3, #0
    22ca:	2100      	movs	r1, #0
    22cc:	f001 f89c 	bl	3408 <light_init>
E:\work-201605\2012-2016 M0+1-20160318\M0+2-20160325\06-User\SD-KL-CD(V6.5)-20160501\02-Software\KL25-program\ch06-UART-20160501\KL25_UART\Debug/../08_Source/main.c:18
    uart_init(UART_0, 9600);    //初始化串口0，波特率为9600
    22d0:	2396      	movs	r3, #150	; 0x96
    22d2:	019b      	lsls	r3, r3, #6
    22d4:	2000      	movs	r0, #0
    22d6:	1c19      	adds	r1, r3, #0
    22d8:	f001 f8d0 	bl	347c <uart_init>
E:\work-201605\2012-2016 M0+1-20160318\M0+2-20160325\06-User\SD-KL-CD(V6.5)-20160501\02-Software\KL25-program\ch06-UART-20160501\KL25_UART\Debug/../08_Source/main.c:19
    uart_init(UART_1, 9600);    //初始化串口1，波特率为9600
    22dc:	2396      	movs	r3, #150	; 0x96
    22de:	019b      	lsls	r3, r3, #6
    22e0:	2001      	movs	r0, #1
    22e2:	1c19      	adds	r1, r3, #0
    22e4:	f001 f8ca 	bl	347c <uart_init>
E:\work-201605\2012-2016 M0+1-20160318\M0+2-20160325\06-User\SD-KL-CD(V6.5)-20160501\02-Software\KL25-program\ch06-UART-20160501\KL25_UART\Debug/../08_Source/main.c:20
    uart_init(UART_2, 9600);    //初始化串口2，波特率为9600
    22e8:	2396      	movs	r3, #150	; 0x96
    22ea:	019b      	lsls	r3, r3, #6
    22ec:	2002      	movs	r0, #2
    22ee:	1c19      	adds	r1, r3, #0
    22f0:	f001 f8c4 	bl	347c <uart_init>
E:\work-201605\2012-2016 M0+1-20160318\M0+2-20160325\06-User\SD-KL-CD(V6.5)-20160501\02-Software\KL25-program\ch06-UART-20160501\KL25_UART\Debug/../08_Source/main.c:23
    //uart_init(UART_Debug, 9600);    //初始化UART_Debug，波特率为9600
    //串口发送初始化提示
    uart_send_string(UART_0, "使用uart_send_string发送：Hello Uart_0!\r\n");
    22f4:	4b24      	ldr	r3, [pc, #144]	; (2388 <main+0xcc>)
    22f6:	2000      	movs	r0, #0
    22f8:	1c19      	adds	r1, r3, #0
    22fa:	f001 fa61 	bl	37c0 <uart_send_string>
E:\work-201605\2012-2016 M0+1-20160318\M0+2-20160325\06-User\SD-KL-CD(V6.5)-20160501\02-Software\KL25-program\ch06-UART-20160501\KL25_UART\Debug/../08_Source/main.c:24
    uart_send_string(UART_1, "使用uart_send_string发送：Hello Uart_1!\r\n");
    22fe:	4b23      	ldr	r3, [pc, #140]	; (238c <main+0xd0>)
    2300:	2001      	movs	r0, #1
    2302:	1c19      	adds	r1, r3, #0
    2304:	f001 fa5c 	bl	37c0 <uart_send_string>
E:\work-201605\2012-2016 M0+1-20160318\M0+2-20160325\06-User\SD-KL-CD(V6.5)-20160501\02-Software\KL25-program\ch06-UART-20160501\KL25_UART\Debug/../08_Source/main.c:25
    uart_send_string(UART_2, "使用uart_send_string发送：Hello Uart_2!\r\n");
    2308:	4b21      	ldr	r3, [pc, #132]	; (2390 <main+0xd4>)
    230a:	2002      	movs	r0, #2
    230c:	1c19      	adds	r1, r3, #0
    230e:	f001 fa57 	bl	37c0 <uart_send_string>
E:\work-201605\2012-2016 M0+1-20160318\M0+2-20160325\06-User\SD-KL-CD(V6.5)-20160501\02-Software\KL25-program\ch06-UART-20160501\KL25_UART\Debug/../08_Source/main.c:26
    printf("使用printf函数发送：Hello Uart_2!\r\n");
    2312:	4b20      	ldr	r3, [pc, #128]	; (2394 <main+0xd8>)
    2314:	1c18      	adds	r0, r3, #0
    2316:	f001 f853 	bl	33c0 <myprintf>
E:\work-201605\2012-2016 M0+1-20160318\M0+2-20160325\06-User\SD-KL-CD(V6.5)-20160501\02-Software\KL25-program\ch06-UART-20160501\KL25_UART\Debug/../08_Source/main.c:28
    //4. 给有关变量赋初值
    mRuncount=0;            //主循环计数器
    231a:	2300      	movs	r3, #0
    231c:	607b      	str	r3, [r7, #4]
E:\work-201605\2012-2016 M0+1-20160318\M0+2-20160325\06-User\SD-KL-CD(V6.5)-20160501\02-Software\KL25-program\ch06-UART-20160501\KL25_UART\Debug/../08_Source/main.c:29
    mLight_chang_num=0;     //灯状态变换次数
    231e:	2300      	movs	r3, #0
    2320:	603b      	str	r3, [r7, #0]
E:\work-201605\2012-2016 M0+1-20160318\M0+2-20160325\06-User\SD-KL-CD(V6.5)-20160501\02-Software\KL25-program\ch06-UART-20160501\KL25_UART\Debug/../08_Source/main.c:31
    //5. 使能模块中断
    uart_enable_re_int(UART_0);   //使能串口0接收中断
    2322:	2000      	movs	r0, #0
    2324:	f001 faf2 	bl	390c <uart_enable_re_int>
E:\work-201605\2012-2016 M0+1-20160318\M0+2-20160325\06-User\SD-KL-CD(V6.5)-20160501\02-Software\KL25-program\ch06-UART-20160501\KL25_UART\Debug/../08_Source/main.c:32
    uart_enable_re_int(UART_1);   //使能串口1接收中断
    2328:	2001      	movs	r0, #1
    232a:	f001 faef 	bl	390c <uart_enable_re_int>
E:\work-201605\2012-2016 M0+1-20160318\M0+2-20160325\06-User\SD-KL-CD(V6.5)-20160501\02-Software\KL25-program\ch06-UART-20160501\KL25_UART\Debug/../08_Source/main.c:33
    uart_enable_re_int(UART_2);   //使能串口2接收中断
    232e:	2002      	movs	r0, #2
    2330:	f001 faec 	bl	390c <uart_enable_re_int>
__enable_irq():
E:/work-201605/2012-2016 M0+1-20160318/M0+2-20160325/06-User/SD-KL-CD(V6.5)-20160501/02-Software/KL25-program/ch06-UART-20160501/KL25_UART/02_CPU/core_cmFunc.h:333
  This function enables IRQ interrupts by clearing the I-bit in the CPSR.
  Can only be executed in Privileged modes.
 */
__attribute__( ( always_inline ) ) __STATIC_INLINE void __enable_irq(void)
{
  __ASM volatile ("cpsie i" : : : "memory");
    2334:	b662      	cpsie	i
main():
E:\work-201605\2012-2016 M0+1-20160318\M0+2-20160325\06-User\SD-KL-CD(V6.5)-20160501\02-Software\KL25-program\ch06-UART-20160501\KL25_UART\Debug/../08_Source/main.c:43
	//进入主循环
	//主循环开始==================================================================
	for(;;)
	{
		//运行指示灯（RUN_LIGHT）闪烁---------------------------------------------
		mRuncount++;					   //主循环次数计数器+1
    2336:	687b      	ldr	r3, [r7, #4]
    2338:	3301      	adds	r3, #1
    233a:	607b      	str	r3, [r7, #4]
E:\work-201605\2012-2016 M0+1-20160318\M0+2-20160325\06-User\SD-KL-CD(V6.5)-20160501\02-Software\KL25-program\ch06-UART-20160501\KL25_UART\Debug/../08_Source/main.c:44
		if (mRuncount >= RUN_COUNTER_MAX)  //主循环次数计数器大于设定的宏常数
    233c:	687a      	ldr	r2, [r7, #4]
    233e:	4b16      	ldr	r3, [pc, #88]	; (2398 <main+0xdc>)
    2340:	429a      	cmp	r2, r3
    2342:	d91f      	bls.n	2384 <main+0xc8>
E:\work-201605\2012-2016 M0+1-20160318\M0+2-20160325\06-User\SD-KL-CD(V6.5)-20160501\02-Software\KL25-program\ch06-UART-20160501\KL25_UART\Debug/../08_Source/main.c:46
		{
			mRuncount=0;				   //主循环次数计数器清零
    2344:	2300      	movs	r3, #0
    2346:	607b      	str	r3, [r7, #4]
E:\work-201605\2012-2016 M0+1-20160318\M0+2-20160325\06-User\SD-KL-CD(V6.5)-20160501\02-Software\KL25-program\ch06-UART-20160501\KL25_UART\Debug/../08_Source/main.c:47
			light_change(LIGHT_BLUE);  //蓝色运行指示灯（RUN_LIGHT_BLUE）状态变化
    2348:	230a      	movs	r3, #10
    234a:	33ff      	adds	r3, #255	; 0xff
    234c:	1c18      	adds	r0, r3, #0
    234e:	f001 f871 	bl	3434 <light_change>
E:\work-201605\2012-2016 M0+1-20160318\M0+2-20160325\06-User\SD-KL-CD(V6.5)-20160501\02-Software\KL25-program\ch06-UART-20160501\KL25_UART\Debug/../08_Source/main.c:48
			mLight_chang_num++;     //灯状态变换次数+1
    2352:	683b      	ldr	r3, [r7, #0]
    2354:	3301      	adds	r3, #1
    2356:	603b      	str	r3, [r7, #0]
E:\work-201605\2012-2016 M0+1-20160318\M0+2-20160325\06-User\SD-KL-CD(V6.5)-20160501\02-Software\KL25-program\ch06-UART-20160501\KL25_UART\Debug/../08_Source/main.c:49
			printf("灯状态变换次数mLight_chang_num=%d\n",mLight_chang_num);
    2358:	4a10      	ldr	r2, [pc, #64]	; (239c <main+0xe0>)
    235a:	683b      	ldr	r3, [r7, #0]
    235c:	1c10      	adds	r0, r2, #0
    235e:	1c19      	adds	r1, r3, #0
    2360:	f001 f82e 	bl	33c0 <myprintf>
E:\work-201605\2012-2016 M0+1-20160318\M0+2-20160325\06-User\SD-KL-CD(V6.5)-20160501\02-Software\KL25-program\ch06-UART-20160501\KL25_UART\Debug/../08_Source/main.c:50
			uart_send_string(UART_0, "UART_0!\r\n");
    2364:	4b0e      	ldr	r3, [pc, #56]	; (23a0 <main+0xe4>)
    2366:	2000      	movs	r0, #0
    2368:	1c19      	adds	r1, r3, #0
    236a:	f001 fa29 	bl	37c0 <uart_send_string>
E:\work-201605\2012-2016 M0+1-20160318\M0+2-20160325\06-User\SD-KL-CD(V6.5)-20160501\02-Software\KL25-program\ch06-UART-20160501\KL25_UART\Debug/../08_Source/main.c:51
		    uart_send_string(UART_1, "UART_1!\r\n");
    236e:	4b0d      	ldr	r3, [pc, #52]	; (23a4 <main+0xe8>)
    2370:	2001      	movs	r0, #1
    2372:	1c19      	adds	r1, r3, #0
    2374:	f001 fa24 	bl	37c0 <uart_send_string>
E:\work-201605\2012-2016 M0+1-20160318\M0+2-20160325\06-User\SD-KL-CD(V6.5)-20160501\02-Software\KL25-program\ch06-UART-20160501\KL25_UART\Debug/../08_Source/main.c:52
		    uart_send_string(UART_2, "UART_2!\r\n");
    2378:	4b0b      	ldr	r3, [pc, #44]	; (23a8 <main+0xec>)
    237a:	2002      	movs	r0, #2
    237c:	1c19      	adds	r1, r3, #0
    237e:	f001 fa1f 	bl	37c0 <uart_send_string>
E:\work-201605\2012-2016 M0+1-20160318\M0+2-20160325\06-User\SD-KL-CD(V6.5)-20160501\02-Software\KL25-program\ch06-UART-20160501\KL25_UART\Debug/../08_Source/main.c:55
		}
		//以下加入用户程序--------------------------------------------------------
	}//主循环end_for
    2382:	e7d8      	b.n	2336 <main+0x7a>
    2384:	e7d7      	b.n	2336 <main+0x7a>
    2386:	46c0      	nop			; (mov r8, r8)
    2388:	00003ed0 	.word	0x00003ed0
    238c:	00003efc 	.word	0x00003efc
    2390:	00003f28 	.word	0x00003f28
    2394:	00003f54 	.word	0x00003f54
    2398:	0026259f 	.word	0x0026259f
    239c:	00003f78 	.word	0x00003f78
    23a0:	00003f9c 	.word	0x00003f9c
    23a4:	00003fa8 	.word	0x00003fa8
    23a8:	00003fb4 	.word	0x00003fb4

000023ac <out_char>:
out_char():
E:\work-201605\2012-2016 M0+1-20160318\M0+2-20160325\06-User\SD-KL-CD(V6.5)-20160501\02-Software\KL25-program\ch06-UART-20160501\KL25_UART\Debug/../07_Soft_Component/printf/printf.c:13
//拌存锛uartNo:涓插ｅ凤UART_0UART_1UART_2UART_DEBUG
//       data:版锛杩涓插ｅ涓瀛版
//芥拌锛
//======================================================================

void out_char(char data) {
    23ac:	b580      	push	{r7, lr}
    23ae:	b082      	sub	sp, #8
    23b0:	af00      	add	r7, sp, #0
    23b2:	1c02      	adds	r2, r0, #0
    23b4:	1dfb      	adds	r3, r7, #7
    23b6:	701a      	strb	r2, [r3, #0]
E:\work-201605\2012-2016 M0+1-20160318\M0+2-20160325\06-User\SD-KL-CD(V6.5)-20160501\02-Software\KL25-program\ch06-UART-20160501\KL25_UART\Debug/../07_Soft_Component/printf/printf.c:14
	uart_send1(UART_Debug, data);
    23b8:	1dfb      	adds	r3, r7, #7
    23ba:	781b      	ldrb	r3, [r3, #0]
    23bc:	2002      	movs	r0, #2
    23be:	1c19      	adds	r1, r3, #0
    23c0:	f001 f9aa 	bl	3718 <uart_send1>
E:\work-201605\2012-2016 M0+1-20160318\M0+2-20160325\06-User\SD-KL-CD(V6.5)-20160501\02-Software\KL25-program\ch06-UART-20160501\KL25_UART\Debug/../07_Soft_Component/printf/printf.c:15
}
    23c4:	46bd      	mov	sp, r7
    23c6:	b002      	add	sp, #8
    23c8:	bd80      	pop	{r7, pc}
    23ca:	46c0      	nop			; (mov r8, r8)

000023cc <printk_putc>:
printk_putc():
E:\work-201605\2012-2016 M0+1-20160318\M0+2-20160325\06-User\SD-KL-CD(V6.5)-20160501\02-Software\KL25-program\ch06-UART-20160501\KL25_UART\Debug/../07_Soft_Component/printf/printf.c:23
//芥瑕锛杩涓插ｆ轰涓瀛绗
//拌存锛data:版锛杩涓插ｅ涓瀛版
//芥拌锛
//======================================================================
static void printk_putc(int c, int *count, PRINTK_INFO *info)
{
    23cc:	b580      	push	{r7, lr}
    23ce:	b084      	sub	sp, #16
    23d0:	af00      	add	r7, sp, #0
    23d2:	60f8      	str	r0, [r7, #12]
    23d4:	60b9      	str	r1, [r7, #8]
    23d6:	607a      	str	r2, [r7, #4]
E:\work-201605\2012-2016 M0+1-20160318\M0+2-20160325\06-User\SD-KL-CD(V6.5)-20160501\02-Software\KL25-program\ch06-UART-20160501\KL25_UART\Debug/../07_Soft_Component/printf/printf.c:24
	switch (info->dest) {
    23d8:	687b      	ldr	r3, [r7, #4]
    23da:	681b      	ldr	r3, [r3, #0]
    23dc:	2b01      	cmp	r3, #1
    23de:	d002      	beq.n	23e6 <printk_putc+0x1a>
    23e0:	2b02      	cmp	r3, #2
    23e2:	d008      	beq.n	23f6 <printk_putc+0x2a>
E:\work-201605\2012-2016 M0+1-20160318\M0+2-20160325\06-User\SD-KL-CD(V6.5)-20160501\02-Software\KL25-program\ch06-UART-20160501\KL25_UART\Debug/../07_Soft_Component/printf/printf.c:33
	case DEST_STRING:
		*(info->loc) = (unsigned char) c;
		++(info->loc);
		break;
	default:
		break;
    23e4:	e012      	b.n	240c <printk_putc+0x40>
E:\work-201605\2012-2016 M0+1-20160318\M0+2-20160325\06-User\SD-KL-CD(V6.5)-20160501\02-Software\KL25-program\ch06-UART-20160501\KL25_UART\Debug/../07_Soft_Component/printf/printf.c:26
//======================================================================
static void printk_putc(int c, int *count, PRINTK_INFO *info)
{
	switch (info->dest) {
	case DEST_CONSOLE:
		info->func((char) c);
    23e6:	687b      	ldr	r3, [r7, #4]
    23e8:	685b      	ldr	r3, [r3, #4]
    23ea:	68fa      	ldr	r2, [r7, #12]
    23ec:	b2d2      	uxtb	r2, r2
    23ee:	b252      	sxtb	r2, r2
    23f0:	1c10      	adds	r0, r2, #0
    23f2:	4798      	blx	r3
E:\work-201605\2012-2016 M0+1-20160318\M0+2-20160325\06-User\SD-KL-CD(V6.5)-20160501\02-Software\KL25-program\ch06-UART-20160501\KL25_UART\Debug/../07_Soft_Component/printf/printf.c:27
		break;
    23f4:	e00a      	b.n	240c <printk_putc+0x40>
E:\work-201605\2012-2016 M0+1-20160318\M0+2-20160325\06-User\SD-KL-CD(V6.5)-20160501\02-Software\KL25-program\ch06-UART-20160501\KL25_UART\Debug/../07_Soft_Component/printf/printf.c:29
	case DEST_STRING:
		*(info->loc) = (unsigned char) c;
    23f6:	687b      	ldr	r3, [r7, #4]
    23f8:	689b      	ldr	r3, [r3, #8]
    23fa:	68fa      	ldr	r2, [r7, #12]
    23fc:	b2d2      	uxtb	r2, r2
    23fe:	701a      	strb	r2, [r3, #0]
E:\work-201605\2012-2016 M0+1-20160318\M0+2-20160325\06-User\SD-KL-CD(V6.5)-20160501\02-Software\KL25-program\ch06-UART-20160501\KL25_UART\Debug/../07_Soft_Component/printf/printf.c:30
		++(info->loc);
    2400:	687b      	ldr	r3, [r7, #4]
    2402:	689b      	ldr	r3, [r3, #8]
    2404:	1c5a      	adds	r2, r3, #1
    2406:	687b      	ldr	r3, [r7, #4]
    2408:	609a      	str	r2, [r3, #8]
E:\work-201605\2012-2016 M0+1-20160318\M0+2-20160325\06-User\SD-KL-CD(V6.5)-20160501\02-Software\KL25-program\ch06-UART-20160501\KL25_UART\Debug/../07_Soft_Component/printf/printf.c:31
		break;
    240a:	46c0      	nop			; (mov r8, r8)
E:\work-201605\2012-2016 M0+1-20160318\M0+2-20160325\06-User\SD-KL-CD(V6.5)-20160501\02-Software\KL25-program\ch06-UART-20160501\KL25_UART\Debug/../07_Soft_Component/printf/printf.c:35
	default:
		break;
	}
	*count += 1;
    240c:	68bb      	ldr	r3, [r7, #8]
    240e:	681b      	ldr	r3, [r3, #0]
    2410:	1c5a      	adds	r2, r3, #1
    2412:	68bb      	ldr	r3, [r7, #8]
    2414:	601a      	str	r2, [r3, #0]
E:\work-201605\2012-2016 M0+1-20160318\M0+2-20160325\06-User\SD-KL-CD(V6.5)-20160501\02-Software\KL25-program\ch06-UART-20160501\KL25_UART\Debug/../07_Soft_Component/printf/printf.c:36
}
    2416:	46bd      	mov	sp, r7
    2418:	b004      	add	sp, #16
    241a:	bd80      	pop	{r7, pc}
    241c:	0000      	movs	r0, r0
	...

00002420 <printk_mkfloatstr>:
printk_mkfloatstr():
E:\work-201605\2012-2016 M0+1-20160318\M0+2-20160325\06-User\SD-KL-CD(V6.5)-20160501\02-Software\KL25-program\ch06-UART-20160501\KL25_UART\Debug/../07_Soft_Component/printf/printf.c:45
//拌存锛 *f:娴瑰版锛float版
//       c[]:瀛绗涓叉扮锛杞扮瀛绗涓叉扮
//芥拌锛
//======================================================================
int printk_mkfloatstr(double *f,char c[],int precision_width)
{
    2420:	b5f0      	push	{r4, r5, r6, r7, lr}
    2422:	b0a7      	sub	sp, #156	; 0x9c
    2424:	af00      	add	r7, sp, #0
    2426:	60f8      	str	r0, [r7, #12]
    2428:	60b9      	str	r1, [r7, #8]
    242a:	607a      	str	r2, [r7, #4]
E:\work-201605\2012-2016 M0+1-20160318\M0+2-20160325\06-User\SD-KL-CD(V6.5)-20160501\02-Software\KL25-program\ch06-UART-20160501\KL25_UART\Debug/../07_Soft_Component/printf/printf.c:46
	uint_32 p,i,j,k,a[5]={0},b[19]={0};
    242c:	1c3b      	adds	r3, r7, #0
    242e:	335c      	adds	r3, #92	; 0x5c
    2430:	2200      	movs	r2, #0
    2432:	601a      	str	r2, [r3, #0]
    2434:	2200      	movs	r2, #0
    2436:	605a      	str	r2, [r3, #4]
    2438:	2200      	movs	r2, #0
    243a:	609a      	str	r2, [r3, #8]
    243c:	2200      	movs	r2, #0
    243e:	60da      	str	r2, [r3, #12]
    2440:	2200      	movs	r2, #0
    2442:	611a      	str	r2, [r3, #16]
    2444:	1c3b      	adds	r3, r7, #0
    2446:	3310      	adds	r3, #16
    2448:	1c1a      	adds	r2, r3, #0
    244a:	234c      	movs	r3, #76	; 0x4c
    244c:	1c10      	adds	r0, r2, #0
    244e:	2100      	movs	r1, #0
    2450:	1c1a      	adds	r2, r3, #0
    2452:	f001 fce7 	bl	3e24 <memset>
E:\work-201605\2012-2016 M0+1-20160318\M0+2-20160325\06-User\SD-KL-CD(V6.5)-20160501\02-Software\KL25-program\ch06-UART-20160501\KL25_UART\Debug/../07_Soft_Component/printf/printf.c:49
	uint_64 q;
	double tempf;
	p=0;
    2456:	2300      	movs	r3, #0
    2458:	2194      	movs	r1, #148	; 0x94
    245a:	19c9      	adds	r1, r1, r7
    245c:	600b      	str	r3, [r1, #0]
E:\work-201605\2012-2016 M0+1-20160318\M0+2-20160325\06-User\SD-KL-CD(V6.5)-20160501\02-Software\KL25-program\ch06-UART-20160501\KL25_UART\Debug/../07_Soft_Component/printf/printf.c:50
	q=0;
    245e:	2300      	movs	r3, #0
    2460:	2400      	movs	r4, #0
    2462:	2280      	movs	r2, #128	; 0x80
    2464:	19d2      	adds	r2, r2, r7
    2466:	6013      	str	r3, [r2, #0]
    2468:	6054      	str	r4, [r2, #4]
E:\work-201605\2012-2016 M0+1-20160318\M0+2-20160325\06-User\SD-KL-CD(V6.5)-20160501\02-Software\KL25-program\ch06-UART-20160501\KL25_UART\Debug/../07_Soft_Component/printf/printf.c:53
	//float m;
	double m;
	p=(uint_32)*f;//存伴ㄥ
    246a:	68fb      	ldr	r3, [r7, #12]
    246c:	685c      	ldr	r4, [r3, #4]
    246e:	681b      	ldr	r3, [r3, #0]
    2470:	1c18      	adds	r0, r3, #0
    2472:	1c21      	adds	r1, r4, #0
    2474:	f7fe faf8 	bl	a68 <__aeabi_d2uiz>
    2478:	1c03      	adds	r3, r0, #0
    247a:	2194      	movs	r1, #148	; 0x94
    247c:	19c9      	adds	r1, r1, r7
    247e:	600b      	str	r3, [r1, #0]
E:\work-201605\2012-2016 M0+1-20160318\M0+2-20160325\06-User\SD-KL-CD(V6.5)-20160501\02-Software\KL25-program\ch06-UART-20160501\KL25_UART\Debug/../07_Soft_Component/printf/printf.c:54
	tempf=(*f-p);
    2480:	68fb      	ldr	r3, [r7, #12]
    2482:	681d      	ldr	r5, [r3, #0]
    2484:	685e      	ldr	r6, [r3, #4]
    2486:	2294      	movs	r2, #148	; 0x94
    2488:	19d2      	adds	r2, r2, r7
    248a:	6810      	ldr	r0, [r2, #0]
    248c:	f7ff faa4 	bl	19d8 <__aeabi_ui2d>
    2490:	1c03      	adds	r3, r0, #0
    2492:	1c0c      	adds	r4, r1, #0
    2494:	1c28      	adds	r0, r5, #0
    2496:	1c31      	adds	r1, r6, #0
    2498:	1c1a      	adds	r2, r3, #0
    249a:	1c23      	adds	r3, r4, #0
    249c:	f7fe ff34 	bl	1308 <__aeabi_dsub>
    24a0:	1c03      	adds	r3, r0, #0
    24a2:	1c0c      	adds	r4, r1, #0
    24a4:	67bb      	str	r3, [r7, #120]	; 0x78
    24a6:	67fc      	str	r4, [r7, #124]	; 0x7c
E:\work-201605\2012-2016 M0+1-20160318\M0+2-20160325\06-User\SD-KL-CD(V6.5)-20160501\02-Software\KL25-program\ch06-UART-20160501\KL25_UART\Debug/../07_Soft_Component/printf/printf.c:55
	if(precision_width==0)
    24a8:	687b      	ldr	r3, [r7, #4]
    24aa:	2b00      	cmp	r3, #0
    24ac:	d124      	bne.n	24f8 <printk_mkfloatstr+0xd8>
E:\work-201605\2012-2016 M0+1-20160318\M0+2-20160325\06-User\SD-KL-CD(V6.5)-20160501\02-Software\KL25-program\ch06-UART-20160501\KL25_UART\Debug/../07_Soft_Component/printf/printf.c:56
	q=(*f-p)*100000000000000000;//灏伴ㄥ
    24ae:	68fb      	ldr	r3, [r7, #12]
    24b0:	681d      	ldr	r5, [r3, #0]
    24b2:	685e      	ldr	r6, [r3, #4]
    24b4:	2394      	movs	r3, #148	; 0x94
    24b6:	19db      	adds	r3, r3, r7
    24b8:	6818      	ldr	r0, [r3, #0]
    24ba:	f7ff fa8d 	bl	19d8 <__aeabi_ui2d>
    24be:	1c03      	adds	r3, r0, #0
    24c0:	1c0c      	adds	r4, r1, #0
    24c2:	1c28      	adds	r0, r5, #0
    24c4:	1c31      	adds	r1, r6, #0
    24c6:	1c1a      	adds	r2, r3, #0
    24c8:	1c23      	adds	r3, r4, #0
    24ca:	f7fe ff1d 	bl	1308 <__aeabi_dsub>
    24ce:	1c03      	adds	r3, r0, #0
    24d0:	1c0c      	adds	r4, r1, #0
    24d2:	1c18      	adds	r0, r3, #0
    24d4:	1c21      	adds	r1, r4, #0
    24d6:	4bb3      	ldr	r3, [pc, #716]	; (27a4 <printk_mkfloatstr+0x384>)
    24d8:	4ab1      	ldr	r2, [pc, #708]	; (27a0 <printk_mkfloatstr+0x380>)
    24da:	f7fe fc85 	bl	de8 <__aeabi_dmul>
    24de:	1c03      	adds	r3, r0, #0
    24e0:	1c0c      	adds	r4, r1, #0
    24e2:	1c18      	adds	r0, r3, #0
    24e4:	1c21      	adds	r1, r4, #0
    24e6:	f7fe fadf 	bl	aa8 <__aeabi_d2ulz>
    24ea:	1c03      	adds	r3, r0, #0
    24ec:	1c0c      	adds	r4, r1, #0
    24ee:	2180      	movs	r1, #128	; 0x80
    24f0:	19c9      	adds	r1, r1, r7
    24f2:	600b      	str	r3, [r1, #0]
    24f4:	604c      	str	r4, [r1, #4]
    24f6:	e019      	b.n	252c <printk_mkfloatstr+0x10c>
E:\work-201605\2012-2016 M0+1-20160318\M0+2-20160325\06-User\SD-KL-CD(V6.5)-20160501\02-Software\KL25-program\ch06-UART-20160501\KL25_UART\Debug/../07_Soft_Component/printf/printf.c:59
	else
	{
		while(precision_width--)
    24f8:	e009      	b.n	250e <printk_mkfloatstr+0xee>
E:\work-201605\2012-2016 M0+1-20160318\M0+2-20160325\06-User\SD-KL-CD(V6.5)-20160501\02-Software\KL25-program\ch06-UART-20160501\KL25_UART\Debug/../07_Soft_Component/printf/printf.c:60
		tempf*=10;
    24fa:	6fb8      	ldr	r0, [r7, #120]	; 0x78
    24fc:	6ff9      	ldr	r1, [r7, #124]	; 0x7c
    24fe:	4aaa      	ldr	r2, [pc, #680]	; (27a8 <printk_mkfloatstr+0x388>)
    2500:	4baa      	ldr	r3, [pc, #680]	; (27ac <printk_mkfloatstr+0x38c>)
    2502:	f7fe fc71 	bl	de8 <__aeabi_dmul>
    2506:	1c03      	adds	r3, r0, #0
    2508:	1c0c      	adds	r4, r1, #0
    250a:	67bb      	str	r3, [r7, #120]	; 0x78
    250c:	67fc      	str	r4, [r7, #124]	; 0x7c
E:\work-201605\2012-2016 M0+1-20160318\M0+2-20160325\06-User\SD-KL-CD(V6.5)-20160501\02-Software\KL25-program\ch06-UART-20160501\KL25_UART\Debug/../07_Soft_Component/printf/printf.c:59 (discriminator 1)
	tempf=(*f-p);
	if(precision_width==0)
	q=(*f-p)*100000000000000000;//灏伴ㄥ
	else
	{
		while(precision_width--)
    250e:	687b      	ldr	r3, [r7, #4]
    2510:	1e5a      	subs	r2, r3, #1
    2512:	607a      	str	r2, [r7, #4]
    2514:	2b00      	cmp	r3, #0
    2516:	d1f0      	bne.n	24fa <printk_mkfloatstr+0xda>
E:\work-201605\2012-2016 M0+1-20160318\M0+2-20160325\06-User\SD-KL-CD(V6.5)-20160501\02-Software\KL25-program\ch06-UART-20160501\KL25_UART\Debug/../07_Soft_Component/printf/printf.c:61
		tempf*=10;
		q=tempf;
    2518:	6fb8      	ldr	r0, [r7, #120]	; 0x78
    251a:	6ff9      	ldr	r1, [r7, #124]	; 0x7c
    251c:	f7fe fac4 	bl	aa8 <__aeabi_d2ulz>
    2520:	1c03      	adds	r3, r0, #0
    2522:	1c0c      	adds	r4, r1, #0
    2524:	2280      	movs	r2, #128	; 0x80
    2526:	19d2      	adds	r2, r2, r7
    2528:	6013      	str	r3, [r2, #0]
    252a:	6054      	str	r4, [r2, #4]
E:\work-201605\2012-2016 M0+1-20160318\M0+2-20160325\06-User\SD-KL-CD(V6.5)-20160501\02-Software\KL25-program\ch06-UART-20160501\KL25_UART\Debug/../07_Soft_Component/printf/printf.c:63
	}
	m=*f-p;
    252c:	68fb      	ldr	r3, [r7, #12]
    252e:	681d      	ldr	r5, [r3, #0]
    2530:	685e      	ldr	r6, [r3, #4]
    2532:	2394      	movs	r3, #148	; 0x94
    2534:	19db      	adds	r3, r3, r7
    2536:	6818      	ldr	r0, [r3, #0]
    2538:	f7ff fa4e 	bl	19d8 <__aeabi_ui2d>
    253c:	1c03      	adds	r3, r0, #0
    253e:	1c0c      	adds	r4, r1, #0
    2540:	1c28      	adds	r0, r5, #0
    2542:	1c31      	adds	r1, r6, #0
    2544:	1c1a      	adds	r2, r3, #0
    2546:	1c23      	adds	r3, r4, #0
    2548:	f7fe fede 	bl	1308 <__aeabi_dsub>
    254c:	1c03      	adds	r3, r0, #0
    254e:	1c0c      	adds	r4, r1, #0
    2550:	673b      	str	r3, [r7, #112]	; 0x70
    2552:	677c      	str	r4, [r7, #116]	; 0x74
E:\work-201605\2012-2016 M0+1-20160318\M0+2-20160325\06-User\SD-KL-CD(V6.5)-20160501\02-Software\KL25-program\ch06-UART-20160501\KL25_UART\Debug/../07_Soft_Component/printf/printf.c:64
	k=0;
    2554:	2300      	movs	r3, #0
    2556:	2188      	movs	r1, #136	; 0x88
    2558:	19c9      	adds	r1, r1, r7
    255a:	600b      	str	r3, [r1, #0]
E:\work-201605\2012-2016 M0+1-20160318\M0+2-20160325\06-User\SD-KL-CD(V6.5)-20160501\02-Software\KL25-program\ch06-UART-20160501\KL25_UART\Debug/../07_Soft_Component/printf/printf.c:65
	while(m<1)
    255c:	e010      	b.n	2580 <printk_mkfloatstr+0x160>
E:\work-201605\2012-2016 M0+1-20160318\M0+2-20160325\06-User\SD-KL-CD(V6.5)-20160501\02-Software\KL25-program\ch06-UART-20160501\KL25_UART\Debug/../07_Soft_Component/printf/printf.c:67
	{
		m=m*10;
    255e:	6f38      	ldr	r0, [r7, #112]	; 0x70
    2560:	6f79      	ldr	r1, [r7, #116]	; 0x74
    2562:	4a91      	ldr	r2, [pc, #580]	; (27a8 <printk_mkfloatstr+0x388>)
    2564:	4b91      	ldr	r3, [pc, #580]	; (27ac <printk_mkfloatstr+0x38c>)
    2566:	f7fe fc3f 	bl	de8 <__aeabi_dmul>
    256a:	1c03      	adds	r3, r0, #0
    256c:	1c0c      	adds	r4, r1, #0
    256e:	673b      	str	r3, [r7, #112]	; 0x70
    2570:	677c      	str	r4, [r7, #116]	; 0x74
E:\work-201605\2012-2016 M0+1-20160318\M0+2-20160325\06-User\SD-KL-CD(V6.5)-20160501\02-Software\KL25-program\ch06-UART-20160501\KL25_UART\Debug/../07_Soft_Component/printf/printf.c:68
		k++;
    2572:	2288      	movs	r2, #136	; 0x88
    2574:	19d2      	adds	r2, r2, r7
    2576:	6813      	ldr	r3, [r2, #0]
    2578:	3301      	adds	r3, #1
    257a:	2188      	movs	r1, #136	; 0x88
    257c:	19c9      	adds	r1, r1, r7
    257e:	600b      	str	r3, [r1, #0]
E:\work-201605\2012-2016 M0+1-20160318\M0+2-20160325\06-User\SD-KL-CD(V6.5)-20160501\02-Software\KL25-program\ch06-UART-20160501\KL25_UART\Debug/../07_Soft_Component/printf/printf.c:65 (discriminator 1)
		tempf*=10;
		q=tempf;
	}
	m=*f-p;
	k=0;
	while(m<1)
    2580:	6f38      	ldr	r0, [r7, #112]	; 0x70
    2582:	6f79      	ldr	r1, [r7, #116]	; 0x74
    2584:	4a8a      	ldr	r2, [pc, #552]	; (27b0 <printk_mkfloatstr+0x390>)
    2586:	4b8b      	ldr	r3, [pc, #556]	; (27b4 <printk_mkfloatstr+0x394>)
    2588:	f7fe fa26 	bl	9d8 <__aeabi_dcmplt>
    258c:	1c03      	adds	r3, r0, #0
    258e:	2b00      	cmp	r3, #0
    2590:	d1e5      	bne.n	255e <printk_mkfloatstr+0x13e>
E:\work-201605\2012-2016 M0+1-20160318\M0+2-20160325\06-User\SD-KL-CD(V6.5)-20160501\02-Software\KL25-program\ch06-UART-20160501\KL25_UART\Debug/../07_Soft_Component/printf/printf.c:70
	{
		m=m*10;
		k++;
	};
	k--;          //璁板灏扮瑰扮涓浣涓涓洪剁灏颁 澶灏涓0.
    2592:	2288      	movs	r2, #136	; 0x88
    2594:	19d2      	adds	r2, r2, r7
    2596:	6813      	ldr	r3, [r2, #0]
    2598:	3b01      	subs	r3, #1
    259a:	2188      	movs	r1, #136	; 0x88
    259c:	19c9      	adds	r1, r1, r7
    259e:	600b      	str	r3, [r1, #0]
E:\work-201605\2012-2016 M0+1-20160318\M0+2-20160325\06-User\SD-KL-CD(V6.5)-20160501\02-Software\KL25-program\ch06-UART-20160501\KL25_UART\Debug/../07_Soft_Component/printf/printf.c:72

		i=0;
    25a0:	2300      	movs	r3, #0
    25a2:	2290      	movs	r2, #144	; 0x90
    25a4:	19d2      	adds	r2, r2, r7
    25a6:	6013      	str	r3, [r2, #0]
E:\work-201605\2012-2016 M0+1-20160318\M0+2-20160325\06-User\SD-KL-CD(V6.5)-20160501\02-Software\KL25-program\ch06-UART-20160501\KL25_UART\Debug/../07_Soft_Component/printf/printf.c:73
	if(0==p)//存伴ㄥ涓0
    25a8:	2194      	movs	r1, #148	; 0x94
    25aa:	19c9      	adds	r1, r1, r7
    25ac:	680b      	ldr	r3, [r1, #0]
    25ae:	2b00      	cmp	r3, #0
    25b0:	d10b      	bne.n	25ca <printk_mkfloatstr+0x1aa>
E:\work-201605\2012-2016 M0+1-20160318\M0+2-20160325\06-User\SD-KL-CD(V6.5)-20160501\02-Software\KL25-program\ch06-UART-20160501\KL25_UART\Debug/../07_Soft_Component/printf/printf.c:74
		c[i++]='0';
    25b2:	2290      	movs	r2, #144	; 0x90
    25b4:	19d2      	adds	r2, r2, r7
    25b6:	6813      	ldr	r3, [r2, #0]
    25b8:	1c5a      	adds	r2, r3, #1
    25ba:	2190      	movs	r1, #144	; 0x90
    25bc:	19c9      	adds	r1, r1, r7
    25be:	600a      	str	r2, [r1, #0]
    25c0:	68ba      	ldr	r2, [r7, #8]
    25c2:	18d3      	adds	r3, r2, r3
    25c4:	2230      	movs	r2, #48	; 0x30
    25c6:	701a      	strb	r2, [r3, #0]
    25c8:	e04b      	b.n	2662 <printk_mkfloatstr+0x242>
E:\work-201605\2012-2016 M0+1-20160318\M0+2-20160325\06-User\SD-KL-CD(V6.5)-20160501\02-Software\KL25-program\ch06-UART-20160501\KL25_UART\Debug/../07_Soft_Component/printf/printf.c:77
	else//存伴ㄥ涓涓0
	{
		j=0;
    25ca:	2300      	movs	r3, #0
    25cc:	228c      	movs	r2, #140	; 0x8c
    25ce:	19d2      	adds	r2, r2, r7
    25d0:	6013      	str	r3, [r2, #0]
E:\work-201605\2012-2016 M0+1-20160318\M0+2-20160325\06-User\SD-KL-CD(V6.5)-20160501\02-Software\KL25-program\ch06-UART-20160501\KL25_UART\Debug/../07_Soft_Component/printf/printf.c:78
		while(p!=0)//搴板
    25d2:	e01e      	b.n	2612 <printk_mkfloatstr+0x1f2>
E:\work-201605\2012-2016 M0+1-20160318\M0+2-20160325\06-User\SD-KL-CD(V6.5)-20160501\02-Software\KL25-program\ch06-UART-20160501\KL25_UART\Debug/../07_Soft_Component/printf/printf.c:80
		{
			a[j++]=p%10;
    25d4:	238c      	movs	r3, #140	; 0x8c
    25d6:	19db      	adds	r3, r3, r7
    25d8:	681c      	ldr	r4, [r3, #0]
    25da:	1c63      	adds	r3, r4, #1
    25dc:	218c      	movs	r1, #140	; 0x8c
    25de:	19c9      	adds	r1, r1, r7
    25e0:	600b      	str	r3, [r1, #0]
    25e2:	2294      	movs	r2, #148	; 0x94
    25e4:	19d2      	adds	r2, r2, r7
    25e6:	6813      	ldr	r3, [r2, #0]
    25e8:	1c18      	adds	r0, r3, #0
    25ea:	210a      	movs	r1, #10
    25ec:	f7fe f972 	bl	8d4 <__aeabi_uidivmod>
    25f0:	1c0b      	adds	r3, r1, #0
    25f2:	1c19      	adds	r1, r3, #0
    25f4:	1c3b      	adds	r3, r7, #0
    25f6:	335c      	adds	r3, #92	; 0x5c
    25f8:	00a2      	lsls	r2, r4, #2
    25fa:	50d1      	str	r1, [r2, r3]
E:\work-201605\2012-2016 M0+1-20160318\M0+2-20160325\06-User\SD-KL-CD(V6.5)-20160501\02-Software\KL25-program\ch06-UART-20160501\KL25_UART\Debug/../07_Soft_Component/printf/printf.c:81
			p/=10;
    25fc:	2194      	movs	r1, #148	; 0x94
    25fe:	19c9      	adds	r1, r1, r7
    2600:	680b      	ldr	r3, [r1, #0]
    2602:	1c18      	adds	r0, r3, #0
    2604:	210a      	movs	r1, #10
    2606:	f7fe f921 	bl	84c <__aeabi_uidiv>
    260a:	1c03      	adds	r3, r0, #0
    260c:	2294      	movs	r2, #148	; 0x94
    260e:	19d2      	adds	r2, r2, r7
    2610:	6013      	str	r3, [r2, #0]
E:\work-201605\2012-2016 M0+1-20160318\M0+2-20160325\06-User\SD-KL-CD(V6.5)-20160501\02-Software\KL25-program\ch06-UART-20160501\KL25_UART\Debug/../07_Soft_Component/printf/printf.c:78 (discriminator 1)
	if(0==p)//存伴ㄥ涓0
		c[i++]='0';
	else//存伴ㄥ涓涓0
	{
		j=0;
		while(p!=0)//搴板
    2612:	2194      	movs	r1, #148	; 0x94
    2614:	19c9      	adds	r1, r1, r7
    2616:	680b      	ldr	r3, [r1, #0]
    2618:	2b00      	cmp	r3, #0
    261a:	d1db      	bne.n	25d4 <printk_mkfloatstr+0x1b4>
E:\work-201605\2012-2016 M0+1-20160318\M0+2-20160325\06-User\SD-KL-CD(V6.5)-20160501\02-Software\KL25-program\ch06-UART-20160501\KL25_UART\Debug/../07_Soft_Component/printf/printf.c:83
		{
			a[j++]=p%10;
			p/=10;
		}
		while(j>0)//灏搴板杞涓烘ｅ锛骞惰浆涓哄瑰瀛绗褰㈠
    261c:	e01c      	b.n	2658 <printk_mkfloatstr+0x238>
E:\work-201605\2012-2016 M0+1-20160318\M0+2-20160325\06-User\SD-KL-CD(V6.5)-20160501\02-Software\KL25-program\ch06-UART-20160501\KL25_UART\Debug/../07_Soft_Component/printf/printf.c:85
		{
			c[i++]=a[j-1]+'0';
    261e:	2290      	movs	r2, #144	; 0x90
    2620:	19d2      	adds	r2, r2, r7
    2622:	6813      	ldr	r3, [r2, #0]
    2624:	1c5a      	adds	r2, r3, #1
    2626:	2190      	movs	r1, #144	; 0x90
    2628:	19c9      	adds	r1, r1, r7
    262a:	600a      	str	r2, [r1, #0]
    262c:	68ba      	ldr	r2, [r7, #8]
    262e:	18d3      	adds	r3, r2, r3
    2630:	218c      	movs	r1, #140	; 0x8c
    2632:	19c9      	adds	r1, r1, r7
    2634:	680a      	ldr	r2, [r1, #0]
    2636:	1e51      	subs	r1, r2, #1
    2638:	1c3a      	adds	r2, r7, #0
    263a:	325c      	adds	r2, #92	; 0x5c
    263c:	0089      	lsls	r1, r1, #2
    263e:	588a      	ldr	r2, [r1, r2]
    2640:	b2d2      	uxtb	r2, r2
    2642:	3230      	adds	r2, #48	; 0x30
    2644:	b2d2      	uxtb	r2, r2
    2646:	b2d2      	uxtb	r2, r2
    2648:	701a      	strb	r2, [r3, #0]
E:\work-201605\2012-2016 M0+1-20160318\M0+2-20160325\06-User\SD-KL-CD(V6.5)-20160501\02-Software\KL25-program\ch06-UART-20160501\KL25_UART\Debug/../07_Soft_Component/printf/printf.c:86
			--j;
    264a:	228c      	movs	r2, #140	; 0x8c
    264c:	19d2      	adds	r2, r2, r7
    264e:	6813      	ldr	r3, [r2, #0]
    2650:	3b01      	subs	r3, #1
    2652:	218c      	movs	r1, #140	; 0x8c
    2654:	19c9      	adds	r1, r1, r7
    2656:	600b      	str	r3, [r1, #0]
E:\work-201605\2012-2016 M0+1-20160318\M0+2-20160325\06-User\SD-KL-CD(V6.5)-20160501\02-Software\KL25-program\ch06-UART-20160501\KL25_UART\Debug/../07_Soft_Component/printf/printf.c:83 (discriminator 1)
		while(p!=0)//搴板
		{
			a[j++]=p%10;
			p/=10;
		}
		while(j>0)//灏搴板杞涓烘ｅ锛骞惰浆涓哄瑰瀛绗褰㈠
    2658:	228c      	movs	r2, #140	; 0x8c
    265a:	19d2      	adds	r2, r2, r7
    265c:	6813      	ldr	r3, [r2, #0]
    265e:	2b00      	cmp	r3, #0
    2660:	d1dd      	bne.n	261e <printk_mkfloatstr+0x1fe>
E:\work-201605\2012-2016 M0+1-20160318\M0+2-20160325\06-User\SD-KL-CD(V6.5)-20160501\02-Software\KL25-program\ch06-UART-20160501\KL25_UART\Debug/../07_Soft_Component/printf/printf.c:89
		{
			c[i++]=a[j-1]+'0';
			--j;
		}
	}
	c[i++]='.';//灏扮
    2662:	2190      	movs	r1, #144	; 0x90
    2664:	19c9      	adds	r1, r1, r7
    2666:	680b      	ldr	r3, [r1, #0]
    2668:	1c5a      	adds	r2, r3, #1
    266a:	2190      	movs	r1, #144	; 0x90
    266c:	19c9      	adds	r1, r1, r7
    266e:	600a      	str	r2, [r1, #0]
    2670:	68ba      	ldr	r2, [r7, #8]
    2672:	18d3      	adds	r3, r2, r3
    2674:	222e      	movs	r2, #46	; 0x2e
    2676:	701a      	strb	r2, [r3, #0]
E:\work-201605\2012-2016 M0+1-20160318\M0+2-20160325\06-User\SD-KL-CD(V6.5)-20160501\02-Software\KL25-program\ch06-UART-20160501\KL25_UART\Debug/../07_Soft_Component/printf/printf.c:90
	if(0==q)//灏伴ㄥ涓0
    2678:	2280      	movs	r2, #128	; 0x80
    267a:	19d2      	adds	r2, r2, r7
    267c:	6813      	ldr	r3, [r2, #0]
    267e:	2184      	movs	r1, #132	; 0x84
    2680:	19c9      	adds	r1, r1, r7
    2682:	680a      	ldr	r2, [r1, #0]
    2684:	4313      	orrs	r3, r2
    2686:	d10b      	bne.n	26a0 <printk_mkfloatstr+0x280>
E:\work-201605\2012-2016 M0+1-20160318\M0+2-20160325\06-User\SD-KL-CD(V6.5)-20160501\02-Software\KL25-program\ch06-UART-20160501\KL25_UART\Debug/../07_Soft_Component/printf/printf.c:91
		c[i++]='0';
    2688:	2290      	movs	r2, #144	; 0x90
    268a:	19d2      	adds	r2, r2, r7
    268c:	6813      	ldr	r3, [r2, #0]
    268e:	1c5a      	adds	r2, r3, #1
    2690:	2190      	movs	r1, #144	; 0x90
    2692:	19c9      	adds	r1, r1, r7
    2694:	600a      	str	r2, [r1, #0]
    2696:	68ba      	ldr	r2, [r7, #8]
    2698:	18d3      	adds	r3, r2, r3
    269a:	2230      	movs	r2, #48	; 0x30
    269c:	701a      	strb	r2, [r3, #0]
    269e:	e070      	b.n	2782 <printk_mkfloatstr+0x362>
E:\work-201605\2012-2016 M0+1-20160318\M0+2-20160325\06-User\SD-KL-CD(V6.5)-20160501\02-Software\KL25-program\ch06-UART-20160501\KL25_UART\Debug/../07_Soft_Component/printf/printf.c:94
	else//灏伴ㄥ涓涓0
	{
		j=0;
    26a0:	2300      	movs	r3, #0
    26a2:	228c      	movs	r2, #140	; 0x8c
    26a4:	19d2      	adds	r2, r2, r7
    26a6:	6013      	str	r3, [r2, #0]
E:\work-201605\2012-2016 M0+1-20160318\M0+2-20160325\06-User\SD-KL-CD(V6.5)-20160501\02-Software\KL25-program\ch06-UART-20160501\KL25_UART\Debug/../07_Soft_Component/printf/printf.c:96

		while(q!=0)//搴板
    26a8:	e027      	b.n	26fa <printk_mkfloatstr+0x2da>
E:\work-201605\2012-2016 M0+1-20160318\M0+2-20160325\06-User\SD-KL-CD(V6.5)-20160501\02-Software\KL25-program\ch06-UART-20160501\KL25_UART\Debug/../07_Soft_Component/printf/printf.c:98
		{
			b[j++]=q%10;
    26aa:	238c      	movs	r3, #140	; 0x8c
    26ac:	19db      	adds	r3, r3, r7
    26ae:	681d      	ldr	r5, [r3, #0]
    26b0:	1c6b      	adds	r3, r5, #1
    26b2:	218c      	movs	r1, #140	; 0x8c
    26b4:	19c9      	adds	r1, r1, r7
    26b6:	600b      	str	r3, [r1, #0]
    26b8:	2280      	movs	r2, #128	; 0x80
    26ba:	19d2      	adds	r2, r2, r7
    26bc:	6813      	ldr	r3, [r2, #0]
    26be:	6854      	ldr	r4, [r2, #4]
    26c0:	1c18      	adds	r0, r3, #0
    26c2:	1c21      	adds	r1, r4, #0
    26c4:	220a      	movs	r2, #10
    26c6:	2300      	movs	r3, #0
    26c8:	f7fe f9ae 	bl	a28 <__aeabi_uldivmod>
    26cc:	1c1c      	adds	r4, r3, #0
    26ce:	1c13      	adds	r3, r2, #0
    26d0:	1c19      	adds	r1, r3, #0
    26d2:	1c3b      	adds	r3, r7, #0
    26d4:	3310      	adds	r3, #16
    26d6:	00aa      	lsls	r2, r5, #2
    26d8:	50d1      	str	r1, [r2, r3]
E:\work-201605\2012-2016 M0+1-20160318\M0+2-20160325\06-User\SD-KL-CD(V6.5)-20160501\02-Software\KL25-program\ch06-UART-20160501\KL25_UART\Debug/../07_Soft_Component/printf/printf.c:99
			q/=10;
    26da:	2180      	movs	r1, #128	; 0x80
    26dc:	19c9      	adds	r1, r1, r7
    26de:	680b      	ldr	r3, [r1, #0]
    26e0:	684c      	ldr	r4, [r1, #4]
    26e2:	1c18      	adds	r0, r3, #0
    26e4:	1c21      	adds	r1, r4, #0
    26e6:	220a      	movs	r2, #10
    26e8:	2300      	movs	r3, #0
    26ea:	f7fe f99d 	bl	a28 <__aeabi_uldivmod>
    26ee:	1c03      	adds	r3, r0, #0
    26f0:	1c0c      	adds	r4, r1, #0
    26f2:	2280      	movs	r2, #128	; 0x80
    26f4:	19d2      	adds	r2, r2, r7
    26f6:	6013      	str	r3, [r2, #0]
    26f8:	6054      	str	r4, [r2, #4]
E:\work-201605\2012-2016 M0+1-20160318\M0+2-20160325\06-User\SD-KL-CD(V6.5)-20160501\02-Software\KL25-program\ch06-UART-20160501\KL25_UART\Debug/../07_Soft_Component/printf/printf.c:96 (discriminator 1)
		c[i++]='0';
	else//灏伴ㄥ涓涓0
	{
		j=0;

		while(q!=0)//搴板
    26fa:	2180      	movs	r1, #128	; 0x80
    26fc:	19c9      	adds	r1, r1, r7
    26fe:	680b      	ldr	r3, [r1, #0]
    2700:	2184      	movs	r1, #132	; 0x84
    2702:	19c9      	adds	r1, r1, r7
    2704:	680a      	ldr	r2, [r1, #0]
    2706:	4313      	orrs	r3, r2
    2708:	d1cf      	bne.n	26aa <printk_mkfloatstr+0x28a>
E:\work-201605\2012-2016 M0+1-20160318\M0+2-20160325\06-User\SD-KL-CD(V6.5)-20160501\02-Software\KL25-program\ch06-UART-20160501\KL25_UART\Debug/../07_Soft_Component/printf/printf.c:101
		{
			b[j++]=q%10;
			q/=10;
		}
		while(k!=0)
    270a:	e012      	b.n	2732 <printk_mkfloatstr+0x312>
E:\work-201605\2012-2016 M0+1-20160318\M0+2-20160325\06-User\SD-KL-CD(V6.5)-20160501\02-Software\KL25-program\ch06-UART-20160501\KL25_UART\Debug/../07_Soft_Component/printf/printf.c:103
		{
			b[j++]=0;
    270c:	228c      	movs	r2, #140	; 0x8c
    270e:	19d2      	adds	r2, r2, r7
    2710:	6813      	ldr	r3, [r2, #0]
    2712:	1c5a      	adds	r2, r3, #1
    2714:	218c      	movs	r1, #140	; 0x8c
    2716:	19c9      	adds	r1, r1, r7
    2718:	600a      	str	r2, [r1, #0]
    271a:	1c3a      	adds	r2, r7, #0
    271c:	3210      	adds	r2, #16
    271e:	009b      	lsls	r3, r3, #2
    2720:	2100      	movs	r1, #0
    2722:	5099      	str	r1, [r3, r2]
E:\work-201605\2012-2016 M0+1-20160318\M0+2-20160325\06-User\SD-KL-CD(V6.5)-20160501\02-Software\KL25-program\ch06-UART-20160501\KL25_UART\Debug/../07_Soft_Component/printf/printf.c:104
			k--;
    2724:	2288      	movs	r2, #136	; 0x88
    2726:	19d2      	adds	r2, r2, r7
    2728:	6813      	ldr	r3, [r2, #0]
    272a:	3b01      	subs	r3, #1
    272c:	2188      	movs	r1, #136	; 0x88
    272e:	19c9      	adds	r1, r1, r7
    2730:	600b      	str	r3, [r1, #0]
E:\work-201605\2012-2016 M0+1-20160318\M0+2-20160325\06-User\SD-KL-CD(V6.5)-20160501\02-Software\KL25-program\ch06-UART-20160501\KL25_UART\Debug/../07_Soft_Component/printf/printf.c:101 (discriminator 1)
		while(q!=0)//搴板
		{
			b[j++]=q%10;
			q/=10;
		}
		while(k!=0)
    2732:	2288      	movs	r2, #136	; 0x88
    2734:	19d2      	adds	r2, r2, r7
    2736:	6813      	ldr	r3, [r2, #0]
    2738:	2b00      	cmp	r3, #0
    273a:	d1e7      	bne.n	270c <printk_mkfloatstr+0x2ec>
E:\work-201605\2012-2016 M0+1-20160318\M0+2-20160325\06-User\SD-KL-CD(V6.5)-20160501\02-Software\KL25-program\ch06-UART-20160501\KL25_UART\Debug/../07_Soft_Component/printf/printf.c:106
		{
			b[j++]=0;
			k--;
		}
		while(j>0)//灏搴板杞涓烘ｅ锛骞惰浆涓哄瑰瀛绗褰㈠
    273c:	e01c      	b.n	2778 <printk_mkfloatstr+0x358>
E:\work-201605\2012-2016 M0+1-20160318\M0+2-20160325\06-User\SD-KL-CD(V6.5)-20160501\02-Software\KL25-program\ch06-UART-20160501\KL25_UART\Debug/../07_Soft_Component/printf/printf.c:108
		{
			c[i++]=b[j-1]+'0';
    273e:	2190      	movs	r1, #144	; 0x90
    2740:	19c9      	adds	r1, r1, r7
    2742:	680b      	ldr	r3, [r1, #0]
    2744:	1c5a      	adds	r2, r3, #1
    2746:	2190      	movs	r1, #144	; 0x90
    2748:	19c9      	adds	r1, r1, r7
    274a:	600a      	str	r2, [r1, #0]
    274c:	68ba      	ldr	r2, [r7, #8]
    274e:	18d3      	adds	r3, r2, r3
    2750:	218c      	movs	r1, #140	; 0x8c
    2752:	19c9      	adds	r1, r1, r7
    2754:	680a      	ldr	r2, [r1, #0]
    2756:	1e51      	subs	r1, r2, #1
    2758:	1c3a      	adds	r2, r7, #0
    275a:	3210      	adds	r2, #16
    275c:	0089      	lsls	r1, r1, #2
    275e:	588a      	ldr	r2, [r1, r2]
    2760:	b2d2      	uxtb	r2, r2
    2762:	3230      	adds	r2, #48	; 0x30
    2764:	b2d2      	uxtb	r2, r2
    2766:	b2d2      	uxtb	r2, r2
    2768:	701a      	strb	r2, [r3, #0]
E:\work-201605\2012-2016 M0+1-20160318\M0+2-20160325\06-User\SD-KL-CD(V6.5)-20160501\02-Software\KL25-program\ch06-UART-20160501\KL25_UART\Debug/../07_Soft_Component/printf/printf.c:109
			--j;
    276a:	228c      	movs	r2, #140	; 0x8c
    276c:	19d2      	adds	r2, r2, r7
    276e:	6813      	ldr	r3, [r2, #0]
    2770:	3b01      	subs	r3, #1
    2772:	218c      	movs	r1, #140	; 0x8c
    2774:	19c9      	adds	r1, r1, r7
    2776:	600b      	str	r3, [r1, #0]
E:\work-201605\2012-2016 M0+1-20160318\M0+2-20160325\06-User\SD-KL-CD(V6.5)-20160501\02-Software\KL25-program\ch06-UART-20160501\KL25_UART\Debug/../07_Soft_Component/printf/printf.c:106 (discriminator 1)
		while(k!=0)
		{
			b[j++]=0;
			k--;
		}
		while(j>0)//灏搴板杞涓烘ｅ锛骞惰浆涓哄瑰瀛绗褰㈠
    2778:	228c      	movs	r2, #140	; 0x8c
    277a:	19d2      	adds	r2, r2, r7
    277c:	6813      	ldr	r3, [r2, #0]
    277e:	2b00      	cmp	r3, #0
    2780:	d1dd      	bne.n	273e <printk_mkfloatstr+0x31e>
E:\work-201605\2012-2016 M0+1-20160318\M0+2-20160325\06-User\SD-KL-CD(V6.5)-20160501\02-Software\KL25-program\ch06-UART-20160501\KL25_UART\Debug/../07_Soft_Component/printf/printf.c:112
		{
			c[i++]=b[j-1]+'0';
			--j;
		}
	}
	c[i]='\0';
    2782:	68ba      	ldr	r2, [r7, #8]
    2784:	2190      	movs	r1, #144	; 0x90
    2786:	19c9      	adds	r1, r1, r7
    2788:	680b      	ldr	r3, [r1, #0]
    278a:	18d3      	adds	r3, r2, r3
    278c:	2200      	movs	r2, #0
    278e:	701a      	strb	r2, [r3, #0]
E:\work-201605\2012-2016 M0+1-20160318\M0+2-20160325\06-User\SD-KL-CD(V6.5)-20160501\02-Software\KL25-program\ch06-UART-20160501\KL25_UART\Debug/../07_Soft_Component/printf/printf.c:113
	return i;
    2790:	2290      	movs	r2, #144	; 0x90
    2792:	19d2      	adds	r2, r2, r7
    2794:	6813      	ldr	r3, [r2, #0]
E:\work-201605\2012-2016 M0+1-20160318\M0+2-20160325\06-User\SD-KL-CD(V6.5)-20160501\02-Software\KL25-program\ch06-UART-20160501\KL25_UART\Debug/../07_Soft_Component/printf/printf.c:114
}
    2796:	1c18      	adds	r0, r3, #0
    2798:	46bd      	mov	sp, r7
    279a:	b027      	add	sp, #156	; 0x9c
    279c:	bdf0      	pop	{r4, r5, r6, r7, pc}
    279e:	46c0      	nop			; (mov r8, r8)
    27a0:	85d8a000 	.word	0x85d8a000
    27a4:	43763457 	.word	0x43763457
    27a8:	00000000 	.word	0x00000000
    27ac:	40240000 	.word	0x40240000
    27b0:	00000000 	.word	0x00000000
    27b4:	3ff00000 	.word	0x3ff00000

000027b8 <printk_mknumstr>:
printk_mknumstr():
E:\work-201605\2012-2016 M0+1-20160318\M0+2-20160325\06-User\SD-KL-CD(V6.5)-20160501\02-Software\KL25-program\ch06-UART-20160501\KL25_UART\Debug/../07_Soft_Component/printf/printf.c:125
//       neg:绗:ゆ版舵绗疯绗锋村舰
//       radix:煎:纭瀹杈烘煎渚濡锛杩舵杩...
//芥拌锛
//======================================================================
static int printk_mknumstr(char *numstr, void *nump, int neg, int radix)
{
    27b8:	b580      	push	{r7, lr}
    27ba:	b08c      	sub	sp, #48	; 0x30
    27bc:	af00      	add	r7, sp, #0
    27be:	60f8      	str	r0, [r7, #12]
    27c0:	60b9      	str	r1, [r7, #8]
    27c2:	607a      	str	r2, [r7, #4]
    27c4:	603b      	str	r3, [r7, #0]
E:\work-201605\2012-2016 M0+1-20160318\M0+2-20160325\06-User\SD-KL-CD(V6.5)-20160501\02-Software\KL25-program\ch06-UART-20160501\KL25_UART\Debug/../07_Soft_Component/printf/printf.c:132
	unsigned int ua, ub, uc;

	int nlen;
	char *nstrp;

	nlen = 0;
    27c6:	2300      	movs	r3, #0
    27c8:	61fb      	str	r3, [r7, #28]
E:\work-201605\2012-2016 M0+1-20160318\M0+2-20160325\06-User\SD-KL-CD(V6.5)-20160501\02-Software\KL25-program\ch06-UART-20160501\KL25_UART\Debug/../07_Soft_Component/printf/printf.c:133
	nstrp = numstr;
    27ca:	68fb      	ldr	r3, [r7, #12]
    27cc:	61bb      	str	r3, [r7, #24]
E:\work-201605\2012-2016 M0+1-20160318\M0+2-20160325\06-User\SD-KL-CD(V6.5)-20160501\02-Software\KL25-program\ch06-UART-20160501\KL25_UART\Debug/../07_Soft_Component/printf/printf.c:134
	*nstrp++ = '\0';
    27ce:	69bb      	ldr	r3, [r7, #24]
    27d0:	1c5a      	adds	r2, r3, #1
    27d2:	61ba      	str	r2, [r7, #24]
    27d4:	2200      	movs	r2, #0
    27d6:	701a      	strb	r2, [r3, #0]
E:\work-201605\2012-2016 M0+1-20160318\M0+2-20160325\06-User\SD-KL-CD(V6.5)-20160501\02-Software\KL25-program\ch06-UART-20160501\KL25_UART\Debug/../07_Soft_Component/printf/printf.c:136

	if (neg) {
    27d8:	687b      	ldr	r3, [r7, #4]
    27da:	2b00      	cmp	r3, #0
    27dc:	d033      	beq.n	2846 <printk_mknumstr+0x8e>
E:\work-201605\2012-2016 M0+1-20160318\M0+2-20160325\06-User\SD-KL-CD(V6.5)-20160501\02-Software\KL25-program\ch06-UART-20160501\KL25_UART\Debug/../07_Soft_Component/printf/printf.c:137
		a = *(int *) nump;
    27de:	68bb      	ldr	r3, [r7, #8]
    27e0:	681b      	ldr	r3, [r3, #0]
    27e2:	62fb      	str	r3, [r7, #44]	; 0x2c
E:\work-201605\2012-2016 M0+1-20160318\M0+2-20160325\06-User\SD-KL-CD(V6.5)-20160501\02-Software\KL25-program\ch06-UART-20160501\KL25_UART\Debug/../07_Soft_Component/printf/printf.c:138
		if (a == 0) {
    27e4:	6afb      	ldr	r3, [r7, #44]	; 0x2c
    27e6:	2b00      	cmp	r3, #0
    27e8:	d106      	bne.n	27f8 <printk_mknumstr+0x40>
E:\work-201605\2012-2016 M0+1-20160318\M0+2-20160325\06-User\SD-KL-CD(V6.5)-20160501\02-Software\KL25-program\ch06-UART-20160501\KL25_UART\Debug/../07_Soft_Component/printf/printf.c:139
			*nstrp = '0';
    27ea:	69bb      	ldr	r3, [r7, #24]
    27ec:	2230      	movs	r2, #48	; 0x30
    27ee:	701a      	strb	r2, [r3, #0]
E:\work-201605\2012-2016 M0+1-20160318\M0+2-20160325\06-User\SD-KL-CD(V6.5)-20160501\02-Software\KL25-program\ch06-UART-20160501\KL25_UART\Debug/../07_Soft_Component/printf/printf.c:140
			++nlen;
    27f0:	69fb      	ldr	r3, [r7, #28]
    27f2:	3301      	adds	r3, #1
    27f4:	61fb      	str	r3, [r7, #28]
E:\work-201605\2012-2016 M0+1-20160318\M0+2-20160325\06-User\SD-KL-CD(V6.5)-20160501\02-Software\KL25-program\ch06-UART-20160501\KL25_UART\Debug/../07_Soft_Component/printf/printf.c:141
			goto done;
    27f6:	e059      	b.n	28ac <printk_mknumstr+0xf4>
E:\work-201605\2012-2016 M0+1-20160318\M0+2-20160325\06-User\SD-KL-CD(V6.5)-20160501\02-Software\KL25-program\ch06-UART-20160501\KL25_UART\Debug/../07_Soft_Component/printf/printf.c:143
		}
		while (a != 0) {
    27f8:	e021      	b.n	283e <printk_mknumstr+0x86>
E:\work-201605\2012-2016 M0+1-20160318\M0+2-20160325\06-User\SD-KL-CD(V6.5)-20160501\02-Software\KL25-program\ch06-UART-20160501\KL25_UART\Debug/../07_Soft_Component/printf/printf.c:144
			b = (int) a / (int) radix;
    27fa:	6af8      	ldr	r0, [r7, #44]	; 0x2c
    27fc:	6839      	ldr	r1, [r7, #0]
    27fe:	f7fe f873 	bl	8e8 <__aeabi_idiv>
    2802:	1c03      	adds	r3, r0, #0
    2804:	617b      	str	r3, [r7, #20]
E:\work-201605\2012-2016 M0+1-20160318\M0+2-20160325\06-User\SD-KL-CD(V6.5)-20160501\02-Software\KL25-program\ch06-UART-20160501\KL25_UART\Debug/../07_Soft_Component/printf/printf.c:145
			c = (int) a - ((int) b * (int) radix);
    2806:	697b      	ldr	r3, [r7, #20]
    2808:	683a      	ldr	r2, [r7, #0]
    280a:	4353      	muls	r3, r2
    280c:	6afa      	ldr	r2, [r7, #44]	; 0x2c
    280e:	1ad3      	subs	r3, r2, r3
    2810:	62bb      	str	r3, [r7, #40]	; 0x28
E:\work-201605\2012-2016 M0+1-20160318\M0+2-20160325\06-User\SD-KL-CD(V6.5)-20160501\02-Software\KL25-program\ch06-UART-20160501\KL25_UART\Debug/../07_Soft_Component/printf/printf.c:146
			if (c < 0) {
    2812:	6abb      	ldr	r3, [r7, #40]	; 0x28
    2814:	2b00      	cmp	r3, #0
    2816:	da04      	bge.n	2822 <printk_mknumstr+0x6a>
E:\work-201605\2012-2016 M0+1-20160318\M0+2-20160325\06-User\SD-KL-CD(V6.5)-20160501\02-Software\KL25-program\ch06-UART-20160501\KL25_UART\Debug/../07_Soft_Component/printf/printf.c:147
				c = ~c + 1 + '0';
    2818:	6abb      	ldr	r3, [r7, #40]	; 0x28
    281a:	2230      	movs	r2, #48	; 0x30
    281c:	1ad3      	subs	r3, r2, r3
    281e:	62bb      	str	r3, [r7, #40]	; 0x28
    2820:	e002      	b.n	2828 <printk_mknumstr+0x70>
E:\work-201605\2012-2016 M0+1-20160318\M0+2-20160325\06-User\SD-KL-CD(V6.5)-20160501\02-Software\KL25-program\ch06-UART-20160501\KL25_UART\Debug/../07_Soft_Component/printf/printf.c:149
			} else {
				c = c + '0';
    2822:	6abb      	ldr	r3, [r7, #40]	; 0x28
    2824:	3330      	adds	r3, #48	; 0x30
    2826:	62bb      	str	r3, [r7, #40]	; 0x28
E:\work-201605\2012-2016 M0+1-20160318\M0+2-20160325\06-User\SD-KL-CD(V6.5)-20160501\02-Software\KL25-program\ch06-UART-20160501\KL25_UART\Debug/../07_Soft_Component/printf/printf.c:151
			}
			a = b;
    2828:	697b      	ldr	r3, [r7, #20]
    282a:	62fb      	str	r3, [r7, #44]	; 0x2c
E:\work-201605\2012-2016 M0+1-20160318\M0+2-20160325\06-User\SD-KL-CD(V6.5)-20160501\02-Software\KL25-program\ch06-UART-20160501\KL25_UART\Debug/../07_Soft_Component/printf/printf.c:152
			*nstrp++ = (char) c;
    282c:	69bb      	ldr	r3, [r7, #24]
    282e:	1c5a      	adds	r2, r3, #1
    2830:	61ba      	str	r2, [r7, #24]
    2832:	6aba      	ldr	r2, [r7, #40]	; 0x28
    2834:	b2d2      	uxtb	r2, r2
    2836:	701a      	strb	r2, [r3, #0]
E:\work-201605\2012-2016 M0+1-20160318\M0+2-20160325\06-User\SD-KL-CD(V6.5)-20160501\02-Software\KL25-program\ch06-UART-20160501\KL25_UART\Debug/../07_Soft_Component/printf/printf.c:153
			++nlen;
    2838:	69fb      	ldr	r3, [r7, #28]
    283a:	3301      	adds	r3, #1
    283c:	61fb      	str	r3, [r7, #28]
E:\work-201605\2012-2016 M0+1-20160318\M0+2-20160325\06-User\SD-KL-CD(V6.5)-20160501\02-Software\KL25-program\ch06-UART-20160501\KL25_UART\Debug/../07_Soft_Component/printf/printf.c:143 (discriminator 1)
		if (a == 0) {
			*nstrp = '0';
			++nlen;
			goto done;
		}
		while (a != 0) {
    283e:	6afb      	ldr	r3, [r7, #44]	; 0x2c
    2840:	2b00      	cmp	r3, #0
    2842:	d1da      	bne.n	27fa <printk_mknumstr+0x42>
    2844:	e032      	b.n	28ac <printk_mknumstr+0xf4>
E:\work-201605\2012-2016 M0+1-20160318\M0+2-20160325\06-User\SD-KL-CD(V6.5)-20160501\02-Software\KL25-program\ch06-UART-20160501\KL25_UART\Debug/../07_Soft_Component/printf/printf.c:156
			a = b;
			*nstrp++ = (char) c;
			++nlen;
		}
	} else {
		ua = *(unsigned int *) nump;
    2846:	68bb      	ldr	r3, [r7, #8]
    2848:	681b      	ldr	r3, [r3, #0]
    284a:	627b      	str	r3, [r7, #36]	; 0x24
E:\work-201605\2012-2016 M0+1-20160318\M0+2-20160325\06-User\SD-KL-CD(V6.5)-20160501\02-Software\KL25-program\ch06-UART-20160501\KL25_UART\Debug/../07_Soft_Component/printf/printf.c:157
		if (ua == 0) {
    284c:	6a7b      	ldr	r3, [r7, #36]	; 0x24
    284e:	2b00      	cmp	r3, #0
    2850:	d106      	bne.n	2860 <printk_mknumstr+0xa8>
E:\work-201605\2012-2016 M0+1-20160318\M0+2-20160325\06-User\SD-KL-CD(V6.5)-20160501\02-Software\KL25-program\ch06-UART-20160501\KL25_UART\Debug/../07_Soft_Component/printf/printf.c:158
			*nstrp = '0';
    2852:	69bb      	ldr	r3, [r7, #24]
    2854:	2230      	movs	r2, #48	; 0x30
    2856:	701a      	strb	r2, [r3, #0]
E:\work-201605\2012-2016 M0+1-20160318\M0+2-20160325\06-User\SD-KL-CD(V6.5)-20160501\02-Software\KL25-program\ch06-UART-20160501\KL25_UART\Debug/../07_Soft_Component/printf/printf.c:159
			++nlen;
    2858:	69fb      	ldr	r3, [r7, #28]
    285a:	3301      	adds	r3, #1
    285c:	61fb      	str	r3, [r7, #28]
E:\work-201605\2012-2016 M0+1-20160318\M0+2-20160325\06-User\SD-KL-CD(V6.5)-20160501\02-Software\KL25-program\ch06-UART-20160501\KL25_UART\Debug/../07_Soft_Component/printf/printf.c:160
			goto done;
    285e:	e025      	b.n	28ac <printk_mknumstr+0xf4>
E:\work-201605\2012-2016 M0+1-20160318\M0+2-20160325\06-User\SD-KL-CD(V6.5)-20160501\02-Software\KL25-program\ch06-UART-20160501\KL25_UART\Debug/../07_Soft_Component/printf/printf.c:162
		}
		while (ua != 0) {
    2860:	e021      	b.n	28a6 <printk_mknumstr+0xee>
E:\work-201605\2012-2016 M0+1-20160318\M0+2-20160325\06-User\SD-KL-CD(V6.5)-20160501\02-Software\KL25-program\ch06-UART-20160501\KL25_UART\Debug/../07_Soft_Component/printf/printf.c:163
			ub = (unsigned int) ua / (unsigned int) radix;
    2862:	683b      	ldr	r3, [r7, #0]
    2864:	6a78      	ldr	r0, [r7, #36]	; 0x24
    2866:	1c19      	adds	r1, r3, #0
    2868:	f7fd fff0 	bl	84c <__aeabi_uidiv>
    286c:	1c03      	adds	r3, r0, #0
    286e:	613b      	str	r3, [r7, #16]
E:\work-201605\2012-2016 M0+1-20160318\M0+2-20160325\06-User\SD-KL-CD(V6.5)-20160501\02-Software\KL25-program\ch06-UART-20160501\KL25_UART\Debug/../07_Soft_Component/printf/printf.c:164
			uc = (unsigned int) ua - ((unsigned int) ub * (unsigned int) radix);
    2870:	683b      	ldr	r3, [r7, #0]
    2872:	693a      	ldr	r2, [r7, #16]
    2874:	4353      	muls	r3, r2
    2876:	6a7a      	ldr	r2, [r7, #36]	; 0x24
    2878:	1ad3      	subs	r3, r2, r3
    287a:	623b      	str	r3, [r7, #32]
E:\work-201605\2012-2016 M0+1-20160318\M0+2-20160325\06-User\SD-KL-CD(V6.5)-20160501\02-Software\KL25-program\ch06-UART-20160501\KL25_UART\Debug/../07_Soft_Component/printf/printf.c:165
			if (uc < 10) {
    287c:	6a3b      	ldr	r3, [r7, #32]
    287e:	2b09      	cmp	r3, #9
    2880:	d803      	bhi.n	288a <printk_mknumstr+0xd2>
E:\work-201605\2012-2016 M0+1-20160318\M0+2-20160325\06-User\SD-KL-CD(V6.5)-20160501\02-Software\KL25-program\ch06-UART-20160501\KL25_UART\Debug/../07_Soft_Component/printf/printf.c:166
				uc = uc + '0';
    2882:	6a3b      	ldr	r3, [r7, #32]
    2884:	3330      	adds	r3, #48	; 0x30
    2886:	623b      	str	r3, [r7, #32]
    2888:	e002      	b.n	2890 <printk_mknumstr+0xd8>
E:\work-201605\2012-2016 M0+1-20160318\M0+2-20160325\06-User\SD-KL-CD(V6.5)-20160501\02-Software\KL25-program\ch06-UART-20160501\KL25_UART\Debug/../07_Soft_Component/printf/printf.c:168
			} else {
				uc = uc - 10 + 'A';
    288a:	6a3b      	ldr	r3, [r7, #32]
    288c:	3337      	adds	r3, #55	; 0x37
    288e:	623b      	str	r3, [r7, #32]
E:\work-201605\2012-2016 M0+1-20160318\M0+2-20160325\06-User\SD-KL-CD(V6.5)-20160501\02-Software\KL25-program\ch06-UART-20160501\KL25_UART\Debug/../07_Soft_Component/printf/printf.c:170
			}
			ua = ub;
    2890:	693b      	ldr	r3, [r7, #16]
    2892:	627b      	str	r3, [r7, #36]	; 0x24
E:\work-201605\2012-2016 M0+1-20160318\M0+2-20160325\06-User\SD-KL-CD(V6.5)-20160501\02-Software\KL25-program\ch06-UART-20160501\KL25_UART\Debug/../07_Soft_Component/printf/printf.c:171
			*nstrp++ = (char) uc;
    2894:	69bb      	ldr	r3, [r7, #24]
    2896:	1c5a      	adds	r2, r3, #1
    2898:	61ba      	str	r2, [r7, #24]
    289a:	6a3a      	ldr	r2, [r7, #32]
    289c:	b2d2      	uxtb	r2, r2
    289e:	701a      	strb	r2, [r3, #0]
E:\work-201605\2012-2016 M0+1-20160318\M0+2-20160325\06-User\SD-KL-CD(V6.5)-20160501\02-Software\KL25-program\ch06-UART-20160501\KL25_UART\Debug/../07_Soft_Component/printf/printf.c:172
			++nlen;
    28a0:	69fb      	ldr	r3, [r7, #28]
    28a2:	3301      	adds	r3, #1
    28a4:	61fb      	str	r3, [r7, #28]
E:\work-201605\2012-2016 M0+1-20160318\M0+2-20160325\06-User\SD-KL-CD(V6.5)-20160501\02-Software\KL25-program\ch06-UART-20160501\KL25_UART\Debug/../07_Soft_Component/printf/printf.c:162 (discriminator 1)
		if (ua == 0) {
			*nstrp = '0';
			++nlen;
			goto done;
		}
		while (ua != 0) {
    28a6:	6a7b      	ldr	r3, [r7, #36]	; 0x24
    28a8:	2b00      	cmp	r3, #0
    28aa:	d1da      	bne.n	2862 <printk_mknumstr+0xaa>
E:\work-201605\2012-2016 M0+1-20160318\M0+2-20160325\06-User\SD-KL-CD(V6.5)-20160501\02-Software\KL25-program\ch06-UART-20160501\KL25_UART\Debug/../07_Soft_Component/printf/printf.c:175
			ua = ub;
			*nstrp++ = (char) uc;
			++nlen;
		}
	}
	done: return nlen;
    28ac:	69fb      	ldr	r3, [r7, #28]
E:\work-201605\2012-2016 M0+1-20160318\M0+2-20160325\06-User\SD-KL-CD(V6.5)-20160501\02-Software\KL25-program\ch06-UART-20160501\KL25_UART\Debug/../07_Soft_Component/printf/printf.c:176
}
    28ae:	1c18      	adds	r0, r3, #0
    28b0:	46bd      	mov	sp, r7
    28b2:	b00c      	add	sp, #48	; 0x30
    28b4:	bd80      	pop	{r7, pc}
    28b6:	46c0      	nop			; (mov r8, r8)

000028b8 <printk_pad_zero>:
printk_pad_zero():
E:\work-201605\2012-2016 M0+1-20160318\M0+2-20160325\06-User\SD-KL-CD(V6.5)-20160501\02-Software\KL25-program\ch06-UART-20160501\KL25_UART\Debug/../07_Soft_Component/printf/printf.c:179
/********************************************************************/
static void printk_pad_zero(int curlen, int field_width, int *count,
		PRINTK_INFO *info) {
    28b8:	b580      	push	{r7, lr}
    28ba:	b086      	sub	sp, #24
    28bc:	af00      	add	r7, sp, #0
    28be:	60f8      	str	r0, [r7, #12]
    28c0:	60b9      	str	r1, [r7, #8]
    28c2:	607a      	str	r2, [r7, #4]
    28c4:	603b      	str	r3, [r7, #0]
E:\work-201605\2012-2016 M0+1-20160318\M0+2-20160325\06-User\SD-KL-CD(V6.5)-20160501\02-Software\KL25-program\ch06-UART-20160501\KL25_UART\Debug/../07_Soft_Component/printf/printf.c:182
	int i;

	for (i = curlen; i < field_width; i++) {
    28c6:	68fb      	ldr	r3, [r7, #12]
    28c8:	617b      	str	r3, [r7, #20]
    28ca:	e009      	b.n	28e0 <printk_pad_zero+0x28>
E:\work-201605\2012-2016 M0+1-20160318\M0+2-20160325\06-User\SD-KL-CD(V6.5)-20160501\02-Software\KL25-program\ch06-UART-20160501\KL25_UART\Debug/../07_Soft_Component/printf/printf.c:183 (discriminator 2)
		printk_putc('0', count, info);
    28cc:	687a      	ldr	r2, [r7, #4]
    28ce:	683b      	ldr	r3, [r7, #0]
    28d0:	2030      	movs	r0, #48	; 0x30
    28d2:	1c11      	adds	r1, r2, #0
    28d4:	1c1a      	adds	r2, r3, #0
    28d6:	f7ff fd79 	bl	23cc <printk_putc>
E:\work-201605\2012-2016 M0+1-20160318\M0+2-20160325\06-User\SD-KL-CD(V6.5)-20160501\02-Software\KL25-program\ch06-UART-20160501\KL25_UART\Debug/../07_Soft_Component/printf/printf.c:182 (discriminator 2)
/********************************************************************/
static void printk_pad_zero(int curlen, int field_width, int *count,
		PRINTK_INFO *info) {
	int i;

	for (i = curlen; i < field_width; i++) {
    28da:	697b      	ldr	r3, [r7, #20]
    28dc:	3301      	adds	r3, #1
    28de:	617b      	str	r3, [r7, #20]
E:\work-201605\2012-2016 M0+1-20160318\M0+2-20160325\06-User\SD-KL-CD(V6.5)-20160501\02-Software\KL25-program\ch06-UART-20160501\KL25_UART\Debug/../07_Soft_Component/printf/printf.c:182 (discriminator 1)
    28e0:	697a      	ldr	r2, [r7, #20]
    28e2:	68bb      	ldr	r3, [r7, #8]
    28e4:	429a      	cmp	r2, r3
    28e6:	dbf1      	blt.n	28cc <printk_pad_zero+0x14>
E:\work-201605\2012-2016 M0+1-20160318\M0+2-20160325\06-User\SD-KL-CD(V6.5)-20160501\02-Software\KL25-program\ch06-UART-20160501\KL25_UART\Debug/../07_Soft_Component/printf/printf.c:185
		printk_putc('0', count, info);
	}
}
    28e8:	46bd      	mov	sp, r7
    28ea:	b006      	add	sp, #24
    28ec:	bd80      	pop	{r7, pc}
    28ee:	46c0      	nop			; (mov r8, r8)

000028f0 <printk_pad_space>:
printk_pad_space():
E:\work-201605\2012-2016 M0+1-20160318\M0+2-20160325\06-User\SD-KL-CD(V6.5)-20160501\02-Software\KL25-program\ch06-UART-20160501\KL25_UART\Debug/../07_Soft_Component/printf/printf.c:189

/********************************************************************/
static void printk_pad_space(int curlen, int field_width, int *count,
		PRINTK_INFO *info) {
    28f0:	b580      	push	{r7, lr}
    28f2:	b086      	sub	sp, #24
    28f4:	af00      	add	r7, sp, #0
    28f6:	60f8      	str	r0, [r7, #12]
    28f8:	60b9      	str	r1, [r7, #8]
    28fa:	607a      	str	r2, [r7, #4]
    28fc:	603b      	str	r3, [r7, #0]
E:\work-201605\2012-2016 M0+1-20160318\M0+2-20160325\06-User\SD-KL-CD(V6.5)-20160501\02-Software\KL25-program\ch06-UART-20160501\KL25_UART\Debug/../07_Soft_Component/printf/printf.c:192
	int i;

	for (i = curlen; i < field_width; i++) {
    28fe:	68fb      	ldr	r3, [r7, #12]
    2900:	617b      	str	r3, [r7, #20]
    2902:	e009      	b.n	2918 <printk_pad_space+0x28>
E:\work-201605\2012-2016 M0+1-20160318\M0+2-20160325\06-User\SD-KL-CD(V6.5)-20160501\02-Software\KL25-program\ch06-UART-20160501\KL25_UART\Debug/../07_Soft_Component/printf/printf.c:193 (discriminator 2)
		printk_putc(' ', count, info);
    2904:	687a      	ldr	r2, [r7, #4]
    2906:	683b      	ldr	r3, [r7, #0]
    2908:	2020      	movs	r0, #32
    290a:	1c11      	adds	r1, r2, #0
    290c:	1c1a      	adds	r2, r3, #0
    290e:	f7ff fd5d 	bl	23cc <printk_putc>
E:\work-201605\2012-2016 M0+1-20160318\M0+2-20160325\06-User\SD-KL-CD(V6.5)-20160501\02-Software\KL25-program\ch06-UART-20160501\KL25_UART\Debug/../07_Soft_Component/printf/printf.c:192 (discriminator 2)
/********************************************************************/
static void printk_pad_space(int curlen, int field_width, int *count,
		PRINTK_INFO *info) {
	int i;

	for (i = curlen; i < field_width; i++) {
    2912:	697b      	ldr	r3, [r7, #20]
    2914:	3301      	adds	r3, #1
    2916:	617b      	str	r3, [r7, #20]
E:\work-201605\2012-2016 M0+1-20160318\M0+2-20160325\06-User\SD-KL-CD(V6.5)-20160501\02-Software\KL25-program\ch06-UART-20160501\KL25_UART\Debug/../07_Soft_Component/printf/printf.c:192 (discriminator 1)
    2918:	697a      	ldr	r2, [r7, #20]
    291a:	68bb      	ldr	r3, [r7, #8]
    291c:	429a      	cmp	r2, r3
    291e:	dbf1      	blt.n	2904 <printk_pad_space+0x14>
E:\work-201605\2012-2016 M0+1-20160318\M0+2-20160325\06-User\SD-KL-CD(V6.5)-20160501\02-Software\KL25-program\ch06-UART-20160501\KL25_UART\Debug/../07_Soft_Component/printf/printf.c:195
		printk_putc(' ', count, info);
	}
}
    2920:	46bd      	mov	sp, r7
    2922:	b006      	add	sp, #24
    2924:	bd80      	pop	{r7, pc}
    2926:	46c0      	nop			; (mov r8, r8)

00002928 <printk>:
printk():
E:\work-201605\2012-2016 M0+1-20160318\M0+2-20160325\06-User\SD-KL-CD(V6.5)-20160501\02-Software\KL25-program\ch06-UART-20160501\KL25_UART\Debug/../07_Soft_Component/printf/printf.c:205
//       fmt:杈烘煎淇℃
//       ap:va_list煎淇℃杈
//芥拌锛
//======================================================================
int printk(PRINTK_INFO *info, const char *fmt, va_list ap)
{
    2928:	b590      	push	{r4, r7, lr}
    292a:	b0a7      	sub	sp, #156	; 0x9c
    292c:	af00      	add	r7, sp, #0
    292e:	60f8      	str	r0, [r7, #12]
    2930:	60b9      	str	r1, [r7, #8]
    2932:	607a      	str	r2, [r7, #4]
E:\work-201605\2012-2016 M0+1-20160318\M0+2-20160325\06-User\SD-KL-CD(V6.5)-20160501\02-Software\KL25-program\ch06-UART-20160501\KL25_UART\Debug/../07_Soft_Component/printf/printf.c:228

	}un1;
	char *p;
	int c;
	char temp1;
	char vstr[33]={'0'};
    2934:	1c3b      	adds	r3, r7, #0
    2936:	332c      	adds	r3, #44	; 0x2c
    2938:	2200      	movs	r2, #0
    293a:	601a      	str	r2, [r3, #0]
    293c:	2200      	movs	r2, #0
    293e:	605a      	str	r2, [r3, #4]
    2940:	2200      	movs	r2, #0
    2942:	609a      	str	r2, [r3, #8]
    2944:	2200      	movs	r2, #0
    2946:	60da      	str	r2, [r3, #12]
    2948:	2200      	movs	r2, #0
    294a:	611a      	str	r2, [r3, #16]
    294c:	2200      	movs	r2, #0
    294e:	615a      	str	r2, [r3, #20]
    2950:	2200      	movs	r2, #0
    2952:	619a      	str	r2, [r3, #24]
    2954:	2200      	movs	r2, #0
    2956:	61da      	str	r2, [r3, #28]
    2958:	2220      	movs	r2, #32
    295a:	2100      	movs	r1, #0
    295c:	5499      	strb	r1, [r3, r2]
    295e:	1c3b      	adds	r3, r7, #0
    2960:	332c      	adds	r3, #44	; 0x2c
    2962:	2230      	movs	r2, #48	; 0x30
    2964:	701a      	strb	r2, [r3, #0]
E:\work-201605\2012-2016 M0+1-20160318\M0+2-20160325\06-User\SD-KL-CD(V6.5)-20160501\02-Software\KL25-program\ch06-UART-20160501\KL25_UART\Debug/../07_Soft_Component/printf/printf.c:249
	int *ivalp;
	char *sval;
	int cval;
	unsigned int uval;

	count = 0;
    2966:	2300      	movs	r3, #0
    2968:	62bb      	str	r3, [r7, #40]	; 0x28
E:\work-201605\2012-2016 M0+1-20160318\M0+2-20160325\06-User\SD-KL-CD(V6.5)-20160501\02-Software\KL25-program\ch06-UART-20160501\KL25_UART\Debug/../07_Soft_Component/printf/printf.c:250
	length_modifier=0;
    296a:	2300      	movs	r3, #0
    296c:	67fb      	str	r3, [r7, #124]	; 0x7c
E:\work-201605\2012-2016 M0+1-20160318\M0+2-20160325\06-User\SD-KL-CD(V6.5)-20160501\02-Software\KL25-program\ch06-UART-20160501\KL25_UART\Debug/../07_Soft_Component/printf/printf.c:251
	precision_used=TRUE;
    296e:	2301      	movs	r3, #1
    2970:	67bb      	str	r3, [r7, #120]	; 0x78
E:\work-201605\2012-2016 M0+1-20160318\M0+2-20160325\06-User\SD-KL-CD(V6.5)-20160501\02-Software\KL25-program\ch06-UART-20160501\KL25_UART\Debug/../07_Soft_Component/printf/printf.c:253
	//浠煎瀛绗涓茬涓涓瀛绗寮濮煎杈烘版
	for (p = (char *) fmt; (c = *p) != 0; p++)
    2972:	68bb      	ldr	r3, [r7, #8]
    2974:	2194      	movs	r1, #148	; 0x94
    2976:	19c9      	adds	r1, r1, r7
    2978:	600b      	str	r3, [r1, #0]
    297a:	f000 fd0f 	bl	339c <printk+0xa74>
E:\work-201605\2012-2016 M0+1-20160318\M0+2-20160325\06-User\SD-KL-CD(V6.5)-20160501\02-Software\KL25-program\ch06-UART-20160501\KL25_UART\Debug/../07_Soft_Component/printf/printf.c:256
	{
		//璇诲%㈢瀛绗锛存ヨ虹瀛绗\n绫荤杞涔瀛绗
		if (c != '%')
    297e:	6e7b      	ldr	r3, [r7, #100]	; 0x64
    2980:	2b25      	cmp	r3, #37	; 0x25
    2982:	d01f      	beq.n	29c4 <printk+0x9c>
E:\work-201605\2012-2016 M0+1-20160318\M0+2-20160325\06-User\SD-KL-CD(V6.5)-20160501\02-Software\KL25-program\ch06-UART-20160501\KL25_UART\Debug/../07_Soft_Component/printf/printf.c:260
		{
#ifndef UNIX_DEBUG
			//%涔瀛绗
			if (c != '\n') {
    2984:	6e7b      	ldr	r3, [r7, #100]	; 0x64
    2986:	2b0a      	cmp	r3, #10
    2988:	d00a      	beq.n	29a0 <printk+0x78>
E:\work-201605\2012-2016 M0+1-20160318\M0+2-20160325\06-User\SD-KL-CD(V6.5)-20160501\02-Software\KL25-program\ch06-UART-20160501\KL25_UART\Debug/../07_Soft_Component/printf/printf.c:261
				printk_putc(c, &count, info);
    298a:	6e79      	ldr	r1, [r7, #100]	; 0x64
    298c:	1c3a      	adds	r2, r7, #0
    298e:	3228      	adds	r2, #40	; 0x28
    2990:	68fb      	ldr	r3, [r7, #12]
    2992:	1c08      	adds	r0, r1, #0
    2994:	1c11      	adds	r1, r2, #0
    2996:	1c1a      	adds	r2, r3, #0
    2998:	f7ff fd18 	bl	23cc <printk_putc>
E:\work-201605\2012-2016 M0+1-20160318\M0+2-20160325\06-User\SD-KL-CD(V6.5)-20160501\02-Software\KL25-program\ch06-UART-20160501\KL25_UART\Debug/../07_Soft_Component/printf/printf.c:272
			}
#else
			printk_putc(c, &count, info);
#endif

			continue;
    299c:	f000 fcf7 	bl	338e <printk+0xa66>
E:\work-201605\2012-2016 M0+1-20160318\M0+2-20160325\06-User\SD-KL-CD(V6.5)-20160501\02-Software\KL25-program\ch06-UART-20160501\KL25_UART\Debug/../07_Soft_Component/printf/printf.c:265
			if (c != '\n') {
				printk_putc(c, &count, info);
			}
			//杈烘㈣绗
			else {
				printk_putc(0x0D /* CR */, &count, info);
    29a0:	1c3a      	adds	r2, r7, #0
    29a2:	3228      	adds	r2, #40	; 0x28
    29a4:	68fb      	ldr	r3, [r7, #12]
    29a6:	200d      	movs	r0, #13
    29a8:	1c11      	adds	r1, r2, #0
    29aa:	1c1a      	adds	r2, r3, #0
    29ac:	f7ff fd0e 	bl	23cc <printk_putc>
E:\work-201605\2012-2016 M0+1-20160318\M0+2-20160325\06-User\SD-KL-CD(V6.5)-20160501\02-Software\KL25-program\ch06-UART-20160501\KL25_UART\Debug/../07_Soft_Component/printf/printf.c:266
				printk_putc(0x0A /* LF */, &count, info);
    29b0:	1c3a      	adds	r2, r7, #0
    29b2:	3228      	adds	r2, #40	; 0x28
    29b4:	68fb      	ldr	r3, [r7, #12]
    29b6:	200a      	movs	r0, #10
    29b8:	1c11      	adds	r1, r2, #0
    29ba:	1c1a      	adds	r2, r3, #0
    29bc:	f7ff fd06 	bl	23cc <printk_putc>
E:\work-201605\2012-2016 M0+1-20160318\M0+2-20160325\06-User\SD-KL-CD(V6.5)-20160501\02-Software\KL25-program\ch06-UART-20160501\KL25_UART\Debug/../07_Soft_Component/printf/printf.c:272
			}
#else
			printk_putc(c, &count, info);
#endif

			continue;
    29c0:	f000 fce5 	bl	338e <printk+0xa66>
E:\work-201605\2012-2016 M0+1-20160318\M0+2-20160325\06-User\SD-KL-CD(V6.5)-20160501\02-Software\KL25-program\ch06-UART-20160501\KL25_UART\Debug/../07_Soft_Component/printf/printf.c:278
		}


		//姝ゆ跺绗涓%  ョ惧峰绗涓涓煎瀛绗锛瀵硅烘煎瀛绗骞跺虹稿杈哄ゆ
		//妫ョ稿淇规蹇
		flags_used = 0;
    29c4:	2300      	movs	r3, #0
    29c6:	2284      	movs	r2, #132	; 0x84
    29c8:	19d2      	adds	r2, r2, r7
    29ca:	6013      	str	r3, [r2, #0]
E:\work-201605\2012-2016 M0+1-20160318\M0+2-20160325\06-User\SD-KL-CD(V6.5)-20160501\02-Software\KL25-program\ch06-UART-20160501\KL25_UART\Debug/../07_Soft_Component/printf/printf.c:279
		done = FALSE;
    29cc:	2300      	movs	r3, #0
    29ce:	2188      	movs	r1, #136	; 0x88
    29d0:	19c9      	adds	r1, r1, r7
    29d2:	600b      	str	r3, [r1, #0]
E:\work-201605\2012-2016 M0+1-20160318\M0+2-20160325\06-User\SD-KL-CD(V6.5)-20160501\02-Software\KL25-program\ch06-UART-20160501\KL25_UART\Debug/../07_Soft_Component/printf/printf.c:280
		while (!done) {
    29d4:	e04c      	b.n	2a70 <printk+0x148>
E:\work-201605\2012-2016 M0+1-20160318\M0+2-20160325\06-User\SD-KL-CD(V6.5)-20160501\02-Software\KL25-program\ch06-UART-20160501\KL25_UART\Debug/../07_Soft_Component/printf/printf.c:281
			switch (/* c = */*++p) {
    29d6:	2294      	movs	r2, #148	; 0x94
    29d8:	19d2      	adds	r2, r2, r7
    29da:	6813      	ldr	r3, [r2, #0]
    29dc:	3301      	adds	r3, #1
    29de:	2194      	movs	r1, #148	; 0x94
    29e0:	19c9      	adds	r1, r1, r7
    29e2:	600b      	str	r3, [r1, #0]
    29e4:	2294      	movs	r2, #148	; 0x94
    29e6:	19d2      	adds	r2, r2, r7
    29e8:	6813      	ldr	r3, [r2, #0]
    29ea:	781b      	ldrb	r3, [r3, #0]
    29ec:	b25b      	sxtb	r3, r3
    29ee:	3b20      	subs	r3, #32
    29f0:	2b10      	cmp	r3, #16
    29f2:	d831      	bhi.n	2a58 <printk+0x130>
    29f4:	009a      	lsls	r2, r3, #2
    29f6:	4bd6      	ldr	r3, [pc, #856]	; (2d50 <printk+0x428>)
    29f8:	18d3      	adds	r3, r2, r3
    29fa:	681b      	ldr	r3, [r3, #0]
    29fc:	469f      	mov	pc, r3
E:\work-201605\2012-2016 M0+1-20160318\M0+2-20160325\06-User\SD-KL-CD(V6.5)-20160501\02-Software\KL25-program\ch06-UART-20160501\KL25_UART\Debug/../07_Soft_Component/printf/printf.c:283
			case '-':
				flags_used |= FLAGS_MINUS;
    29fe:	2184      	movs	r1, #132	; 0x84
    2a00:	19c9      	adds	r1, r1, r7
    2a02:	680b      	ldr	r3, [r1, #0]
    2a04:	2201      	movs	r2, #1
    2a06:	4313      	orrs	r3, r2
    2a08:	2284      	movs	r2, #132	; 0x84
    2a0a:	19d2      	adds	r2, r2, r7
    2a0c:	6013      	str	r3, [r2, #0]
E:\work-201605\2012-2016 M0+1-20160318\M0+2-20160325\06-User\SD-KL-CD(V6.5)-20160501\02-Software\KL25-program\ch06-UART-20160501\KL25_UART\Debug/../07_Soft_Component/printf/printf.c:284
				break;
    2a0e:	e02f      	b.n	2a70 <printk+0x148>
E:\work-201605\2012-2016 M0+1-20160318\M0+2-20160325\06-User\SD-KL-CD(V6.5)-20160501\02-Software\KL25-program\ch06-UART-20160501\KL25_UART\Debug/../07_Soft_Component/printf/printf.c:286
			case '+':
				flags_used |= FLAGS_PLUS;
    2a10:	2184      	movs	r1, #132	; 0x84
    2a12:	19c9      	adds	r1, r1, r7
    2a14:	680b      	ldr	r3, [r1, #0]
    2a16:	2202      	movs	r2, #2
    2a18:	4313      	orrs	r3, r2
    2a1a:	2284      	movs	r2, #132	; 0x84
    2a1c:	19d2      	adds	r2, r2, r7
    2a1e:	6013      	str	r3, [r2, #0]
E:\work-201605\2012-2016 M0+1-20160318\M0+2-20160325\06-User\SD-KL-CD(V6.5)-20160501\02-Software\KL25-program\ch06-UART-20160501\KL25_UART\Debug/../07_Soft_Component/printf/printf.c:287
				break;
    2a20:	e026      	b.n	2a70 <printk+0x148>
E:\work-201605\2012-2016 M0+1-20160318\M0+2-20160325\06-User\SD-KL-CD(V6.5)-20160501\02-Software\KL25-program\ch06-UART-20160501\KL25_UART\Debug/../07_Soft_Component/printf/printf.c:289
			case ' ':
				flags_used |= FLAGS_SPACE;
    2a22:	2184      	movs	r1, #132	; 0x84
    2a24:	19c9      	adds	r1, r1, r7
    2a26:	680b      	ldr	r3, [r1, #0]
    2a28:	2204      	movs	r2, #4
    2a2a:	4313      	orrs	r3, r2
    2a2c:	2284      	movs	r2, #132	; 0x84
    2a2e:	19d2      	adds	r2, r2, r7
    2a30:	6013      	str	r3, [r2, #0]
E:\work-201605\2012-2016 M0+1-20160318\M0+2-20160325\06-User\SD-KL-CD(V6.5)-20160501\02-Software\KL25-program\ch06-UART-20160501\KL25_UART\Debug/../07_Soft_Component/printf/printf.c:290
				break;
    2a32:	e01d      	b.n	2a70 <printk+0x148>
E:\work-201605\2012-2016 M0+1-20160318\M0+2-20160325\06-User\SD-KL-CD(V6.5)-20160501\02-Software\KL25-program\ch06-UART-20160501\KL25_UART\Debug/../07_Soft_Component/printf/printf.c:292
			case '0':
				flags_used |= FLAGS_ZERO;
    2a34:	2184      	movs	r1, #132	; 0x84
    2a36:	19c9      	adds	r1, r1, r7
    2a38:	680b      	ldr	r3, [r1, #0]
    2a3a:	2208      	movs	r2, #8
    2a3c:	4313      	orrs	r3, r2
    2a3e:	2284      	movs	r2, #132	; 0x84
    2a40:	19d2      	adds	r2, r2, r7
    2a42:	6013      	str	r3, [r2, #0]
E:\work-201605\2012-2016 M0+1-20160318\M0+2-20160325\06-User\SD-KL-CD(V6.5)-20160501\02-Software\KL25-program\ch06-UART-20160501\KL25_UART\Debug/../07_Soft_Component/printf/printf.c:293
				break;
    2a44:	e014      	b.n	2a70 <printk+0x148>
E:\work-201605\2012-2016 M0+1-20160318\M0+2-20160325\06-User\SD-KL-CD(V6.5)-20160501\02-Software\KL25-program\ch06-UART-20160501\KL25_UART\Debug/../07_Soft_Component/printf/printf.c:295
			case '#':
				flags_used |= FLAGS_POUND;
    2a46:	2184      	movs	r1, #132	; 0x84
    2a48:	19c9      	adds	r1, r1, r7
    2a4a:	680b      	ldr	r3, [r1, #0]
    2a4c:	2210      	movs	r2, #16
    2a4e:	4313      	orrs	r3, r2
    2a50:	2284      	movs	r2, #132	; 0x84
    2a52:	19d2      	adds	r2, r2, r7
    2a54:	6013      	str	r3, [r2, #0]
E:\work-201605\2012-2016 M0+1-20160318\M0+2-20160325\06-User\SD-KL-CD(V6.5)-20160501\02-Software\KL25-program\ch06-UART-20160501\KL25_UART\Debug/../07_Soft_Component/printf/printf.c:296
				break;
    2a56:	e00b      	b.n	2a70 <printk+0x148>
E:\work-201605\2012-2016 M0+1-20160318\M0+2-20160325\06-User\SD-KL-CD(V6.5)-20160501\02-Software\KL25-program\ch06-UART-20160501\KL25_UART\Debug/../07_Soft_Component/printf/printf.c:299
			default:
				/* we've gone one char too far */
				--p;
    2a58:	2194      	movs	r1, #148	; 0x94
    2a5a:	19c9      	adds	r1, r1, r7
    2a5c:	680b      	ldr	r3, [r1, #0]
    2a5e:	3b01      	subs	r3, #1
    2a60:	2294      	movs	r2, #148	; 0x94
    2a62:	19d2      	adds	r2, r2, r7
    2a64:	6013      	str	r3, [r2, #0]
E:\work-201605\2012-2016 M0+1-20160318\M0+2-20160325\06-User\SD-KL-CD(V6.5)-20160501\02-Software\KL25-program\ch06-UART-20160501\KL25_UART\Debug/../07_Soft_Component/printf/printf.c:300
				done = TRUE;
    2a66:	2301      	movs	r3, #1
    2a68:	2188      	movs	r1, #136	; 0x88
    2a6a:	19c9      	adds	r1, r1, r7
    2a6c:	600b      	str	r3, [r1, #0]
E:\work-201605\2012-2016 M0+1-20160318\M0+2-20160325\06-User\SD-KL-CD(V6.5)-20160501\02-Software\KL25-program\ch06-UART-20160501\KL25_UART\Debug/../07_Soft_Component/printf/printf.c:301
				break;
    2a6e:	46c0      	nop			; (mov r8, r8)
E:\work-201605\2012-2016 M0+1-20160318\M0+2-20160325\06-User\SD-KL-CD(V6.5)-20160501\02-Software\KL25-program\ch06-UART-20160501\KL25_UART\Debug/../07_Soft_Component/printf/printf.c:280 (discriminator 1)

		//姝ゆ跺绗涓%  ョ惧峰绗涓涓煎瀛绗锛瀵硅烘煎瀛绗骞跺虹稿杈哄ゆ
		//妫ョ稿淇规蹇
		flags_used = 0;
		done = FALSE;
		while (!done) {
    2a70:	2288      	movs	r2, #136	; 0x88
    2a72:	19d2      	adds	r2, r2, r7
    2a74:	6813      	ldr	r3, [r2, #0]
    2a76:	2b00      	cmp	r3, #0
    2a78:	d0ad      	beq.n	29d6 <printk+0xae>
E:\work-201605\2012-2016 M0+1-20160318\M0+2-20160325\06-User\SD-KL-CD(V6.5)-20160501\02-Software\KL25-program\ch06-UART-20160501\KL25_UART\Debug/../07_Soft_Component/printf/printf.c:307
			}
		}


		//妫%涓涓涓瀛绗 纭瀹杈洪垮害
		field_width = 0;
    2a7a:	2300      	movs	r3, #0
    2a7c:	2180      	movs	r1, #128	; 0x80
    2a7e:	19c9      	adds	r1, r1, r7
    2a80:	600b      	str	r3, [r1, #0]
E:\work-201605\2012-2016 M0+1-20160318\M0+2-20160325\06-User\SD-KL-CD(V6.5)-20160501\02-Software\KL25-program\ch06-UART-20160501\KL25_UART\Debug/../07_Soft_Component/printf/printf.c:308
		done = FALSE;
    2a82:	2300      	movs	r3, #0
    2a84:	2288      	movs	r2, #136	; 0x88
    2a86:	19d2      	adds	r2, r2, r7
    2a88:	6013      	str	r3, [r2, #0]
E:\work-201605\2012-2016 M0+1-20160318\M0+2-20160325\06-User\SD-KL-CD(V6.5)-20160501\02-Software\KL25-program\ch06-UART-20160501\KL25_UART\Debug/../07_Soft_Component/printf/printf.c:309
		while (!done) {
    2a8a:	e02b      	b.n	2ae4 <printk+0x1bc>
E:\work-201605\2012-2016 M0+1-20160318\M0+2-20160325\06-User\SD-KL-CD(V6.5)-20160501\02-Software\KL25-program\ch06-UART-20160501\KL25_UART\Debug/../07_Soft_Component/printf/printf.c:310
			switch (c = *++p) {
    2a8c:	2194      	movs	r1, #148	; 0x94
    2a8e:	19c9      	adds	r1, r1, r7
    2a90:	680b      	ldr	r3, [r1, #0]
    2a92:	3301      	adds	r3, #1
    2a94:	2294      	movs	r2, #148	; 0x94
    2a96:	19d2      	adds	r2, r2, r7
    2a98:	6013      	str	r3, [r2, #0]
    2a9a:	2194      	movs	r1, #148	; 0x94
    2a9c:	19c9      	adds	r1, r1, r7
    2a9e:	680b      	ldr	r3, [r1, #0]
    2aa0:	781b      	ldrb	r3, [r3, #0]
    2aa2:	b25b      	sxtb	r3, r3
    2aa4:	667b      	str	r3, [r7, #100]	; 0x64
    2aa6:	6e7b      	ldr	r3, [r7, #100]	; 0x64
    2aa8:	3b30      	subs	r3, #48	; 0x30
    2aaa:	2b09      	cmp	r3, #9
    2aac:	d80e      	bhi.n	2acc <printk+0x1a4>
E:\work-201605\2012-2016 M0+1-20160318\M0+2-20160325\06-User\SD-KL-CD(V6.5)-20160501\02-Software\KL25-program\ch06-UART-20160501\KL25_UART\Debug/../07_Soft_Component/printf/printf.c:321
			case '5':
			case '6':
			case '7':
			case '8':
			case '9':
				field_width = (field_width * 10) + (c - '0');
    2aae:	2380      	movs	r3, #128	; 0x80
    2ab0:	19db      	adds	r3, r3, r7
    2ab2:	681a      	ldr	r2, [r3, #0]
    2ab4:	1c13      	adds	r3, r2, #0
    2ab6:	009b      	lsls	r3, r3, #2
    2ab8:	189b      	adds	r3, r3, r2
    2aba:	005b      	lsls	r3, r3, #1
    2abc:	1c1a      	adds	r2, r3, #0
    2abe:	6e7b      	ldr	r3, [r7, #100]	; 0x64
    2ac0:	3b30      	subs	r3, #48	; 0x30
    2ac2:	18d3      	adds	r3, r2, r3
    2ac4:	2180      	movs	r1, #128	; 0x80
    2ac6:	19c9      	adds	r1, r1, r7
    2ac8:	600b      	str	r3, [r1, #0]
E:\work-201605\2012-2016 M0+1-20160318\M0+2-20160325\06-User\SD-KL-CD(V6.5)-20160501\02-Software\KL25-program\ch06-UART-20160501\KL25_UART\Debug/../07_Soft_Component/printf/printf.c:322
				break;
    2aca:	e00b      	b.n	2ae4 <printk+0x1bc>
E:\work-201605\2012-2016 M0+1-20160318\M0+2-20160325\06-User\SD-KL-CD(V6.5)-20160501\02-Software\KL25-program\ch06-UART-20160501\KL25_UART\Debug/../07_Soft_Component/printf/printf.c:325
			default:
				/* we've gone one char too far */
				--p;
    2acc:	2294      	movs	r2, #148	; 0x94
    2ace:	19d2      	adds	r2, r2, r7
    2ad0:	6813      	ldr	r3, [r2, #0]
    2ad2:	3b01      	subs	r3, #1
    2ad4:	2194      	movs	r1, #148	; 0x94
    2ad6:	19c9      	adds	r1, r1, r7
    2ad8:	600b      	str	r3, [r1, #0]
E:\work-201605\2012-2016 M0+1-20160318\M0+2-20160325\06-User\SD-KL-CD(V6.5)-20160501\02-Software\KL25-program\ch06-UART-20160501\KL25_UART\Debug/../07_Soft_Component/printf/printf.c:326
				done = TRUE;
    2ada:	2301      	movs	r3, #1
    2adc:	2288      	movs	r2, #136	; 0x88
    2ade:	19d2      	adds	r2, r2, r7
    2ae0:	6013      	str	r3, [r2, #0]
E:\work-201605\2012-2016 M0+1-20160318\M0+2-20160325\06-User\SD-KL-CD(V6.5)-20160501\02-Software\KL25-program\ch06-UART-20160501\KL25_UART\Debug/../07_Soft_Component/printf/printf.c:327
				break;
    2ae2:	46c0      	nop			; (mov r8, r8)
E:\work-201605\2012-2016 M0+1-20160318\M0+2-20160325\06-User\SD-KL-CD(V6.5)-20160501\02-Software\KL25-program\ch06-UART-20160501\KL25_UART\Debug/../07_Soft_Component/printf/printf.c:309 (discriminator 1)


		//妫%涓涓涓瀛绗 纭瀹杈洪垮害
		field_width = 0;
		done = FALSE;
		while (!done) {
    2ae4:	2188      	movs	r1, #136	; 0x88
    2ae6:	19c9      	adds	r1, r1, r7
    2ae8:	680b      	ldr	r3, [r1, #0]
    2aea:	2b00      	cmp	r3, #0
    2aec:	d0ce      	beq.n	2a8c <printk+0x164>
E:\work-201605\2012-2016 M0+1-20160318\M0+2-20160325\06-User\SD-KL-CD(V6.5)-20160501\02-Software\KL25-program\ch06-UART-20160501\KL25_UART\Debug/../07_Soft_Component/printf/printf.c:331
				done = TRUE;
				break;
			}
		}
		//姝ゆ跺绗涓%.杈
		if (/* (c = *++p) */*++p == '.') {
    2aee:	2294      	movs	r2, #148	; 0x94
    2af0:	19d2      	adds	r2, r2, r7
    2af2:	6813      	ldr	r3, [r2, #0]
    2af4:	3301      	adds	r3, #1
    2af6:	2194      	movs	r1, #148	; 0x94
    2af8:	19c9      	adds	r1, r1, r7
    2afa:	600b      	str	r3, [r1, #0]
    2afc:	2294      	movs	r2, #148	; 0x94
    2afe:	19d2      	adds	r2, r2, r7
    2b00:	6813      	ldr	r3, [r2, #0]
    2b02:	781b      	ldrb	r3, [r3, #0]
    2b04:	b25b      	sxtb	r3, r3
    2b06:	2b2e      	cmp	r3, #46	; 0x2e
    2b08:	d134      	bne.n	2b74 <printk+0x24c>
E:\work-201605\2012-2016 M0+1-20160318\M0+2-20160325\06-User\SD-KL-CD(V6.5)-20160501\02-Software\KL25-program\ch06-UART-20160501\KL25_UART\Debug/../07_Soft_Component/printf/printf.c:337
			/* precision_used = TRUE; */

			/*
			 * Must get precision field width, if present.
			 */
			precision_width = 0;
    2b0a:	2300      	movs	r3, #0
    2b0c:	677b      	str	r3, [r7, #116]	; 0x74
E:\work-201605\2012-2016 M0+1-20160318\M0+2-20160325\06-User\SD-KL-CD(V6.5)-20160501\02-Software\KL25-program\ch06-UART-20160501\KL25_UART\Debug/../07_Soft_Component/printf/printf.c:338
			done = FALSE;
    2b0e:	2300      	movs	r3, #0
    2b10:	2188      	movs	r1, #136	; 0x88
    2b12:	19c9      	adds	r1, r1, r7
    2b14:	600b      	str	r3, [r1, #0]
E:\work-201605\2012-2016 M0+1-20160318\M0+2-20160325\06-User\SD-KL-CD(V6.5)-20160501\02-Software\KL25-program\ch06-UART-20160501\KL25_UART\Debug/../07_Soft_Component/printf/printf.c:339
			while (!done) {
    2b16:	e027      	b.n	2b68 <printk+0x240>
E:\work-201605\2012-2016 M0+1-20160318\M0+2-20160325\06-User\SD-KL-CD(V6.5)-20160501\02-Software\KL25-program\ch06-UART-20160501\KL25_UART\Debug/../07_Soft_Component/printf/printf.c:340
				switch ( c = *++p) {
    2b18:	2294      	movs	r2, #148	; 0x94
    2b1a:	19d2      	adds	r2, r2, r7
    2b1c:	6813      	ldr	r3, [r2, #0]
    2b1e:	3301      	adds	r3, #1
    2b20:	2194      	movs	r1, #148	; 0x94
    2b22:	19c9      	adds	r1, r1, r7
    2b24:	600b      	str	r3, [r1, #0]
    2b26:	2294      	movs	r2, #148	; 0x94
    2b28:	19d2      	adds	r2, r2, r7
    2b2a:	6813      	ldr	r3, [r2, #0]
    2b2c:	781b      	ldrb	r3, [r3, #0]
    2b2e:	b25b      	sxtb	r3, r3
    2b30:	667b      	str	r3, [r7, #100]	; 0x64
    2b32:	6e7b      	ldr	r3, [r7, #100]	; 0x64
    2b34:	3b30      	subs	r3, #48	; 0x30
    2b36:	2b09      	cmp	r3, #9
    2b38:	d80a      	bhi.n	2b50 <printk+0x228>
E:\work-201605\2012-2016 M0+1-20160318\M0+2-20160325\06-User\SD-KL-CD(V6.5)-20160501\02-Software\KL25-program\ch06-UART-20160501\KL25_UART\Debug/../07_Soft_Component/printf/printf.c:352
				case '6':
				case '7':
				case '8':
				case '9':
#if 1
				precision_width = (precision_width * 10) +	(c - '0');
    2b3a:	6f7a      	ldr	r2, [r7, #116]	; 0x74
    2b3c:	1c13      	adds	r3, r2, #0
    2b3e:	009b      	lsls	r3, r3, #2
    2b40:	189b      	adds	r3, r3, r2
    2b42:	005b      	lsls	r3, r3, #1
    2b44:	1c1a      	adds	r2, r3, #0
    2b46:	6e7b      	ldr	r3, [r7, #100]	; 0x64
    2b48:	3b30      	subs	r3, #48	; 0x30
    2b4a:	18d3      	adds	r3, r2, r3
    2b4c:	677b      	str	r3, [r7, #116]	; 0x74
E:\work-201605\2012-2016 M0+1-20160318\M0+2-20160325\06-User\SD-KL-CD(V6.5)-20160501\02-Software\KL25-program\ch06-UART-20160501\KL25_UART\Debug/../07_Soft_Component/printf/printf.c:355

#endif
					break;
    2b4e:	e00b      	b.n	2b68 <printk+0x240>
E:\work-201605\2012-2016 M0+1-20160318\M0+2-20160325\06-User\SD-KL-CD(V6.5)-20160501\02-Software\KL25-program\ch06-UART-20160501\KL25_UART\Debug/../07_Soft_Component/printf/printf.c:358
				default:
					/* we've gone one char too far */
					--p;
    2b50:	2194      	movs	r1, #148	; 0x94
    2b52:	19c9      	adds	r1, r1, r7
    2b54:	680b      	ldr	r3, [r1, #0]
    2b56:	3b01      	subs	r3, #1
    2b58:	2294      	movs	r2, #148	; 0x94
    2b5a:	19d2      	adds	r2, r2, r7
    2b5c:	6013      	str	r3, [r2, #0]
E:\work-201605\2012-2016 M0+1-20160318\M0+2-20160325\06-User\SD-KL-CD(V6.5)-20160501\02-Software\KL25-program\ch06-UART-20160501\KL25_UART\Debug/../07_Soft_Component/printf/printf.c:359
					done = TRUE;
    2b5e:	2301      	movs	r3, #1
    2b60:	2188      	movs	r1, #136	; 0x88
    2b62:	19c9      	adds	r1, r1, r7
    2b64:	600b      	str	r3, [r1, #0]
E:\work-201605\2012-2016 M0+1-20160318\M0+2-20160325\06-User\SD-KL-CD(V6.5)-20160501\02-Software\KL25-program\ch06-UART-20160501\KL25_UART\Debug/../07_Soft_Component/printf/printf.c:360
					break;
    2b66:	46c0      	nop			; (mov r8, r8)
E:\work-201605\2012-2016 M0+1-20160318\M0+2-20160325\06-User\SD-KL-CD(V6.5)-20160501\02-Software\KL25-program\ch06-UART-20160501\KL25_UART\Debug/../07_Soft_Component/printf/printf.c:339 (discriminator 1)
			/*
			 * Must get precision field width, if present.
			 */
			precision_width = 0;
			done = FALSE;
			while (!done) {
    2b68:	2288      	movs	r2, #136	; 0x88
    2b6a:	19d2      	adds	r2, r2, r7
    2b6c:	6813      	ldr	r3, [r2, #0]
    2b6e:	2b00      	cmp	r3, #0
    2b70:	d0d2      	beq.n	2b18 <printk+0x1f0>
    2b72:	e00a      	b.n	2b8a <printk+0x262>
E:\work-201605\2012-2016 M0+1-20160318\M0+2-20160325\06-User\SD-KL-CD(V6.5)-20160501\02-Software\KL25-program\ch06-UART-20160501\KL25_UART\Debug/../07_Soft_Component/printf/printf.c:365
					break;
				}
			}
		} else {
			/* we've gone one char too far */
			--p;
    2b74:	2194      	movs	r1, #148	; 0x94
    2b76:	19c9      	adds	r1, r1, r7
    2b78:	680b      	ldr	r3, [r1, #0]
    2b7a:	3b01      	subs	r3, #1
    2b7c:	2294      	movs	r2, #148	; 0x94
    2b7e:	19d2      	adds	r2, r2, r7
    2b80:	6013      	str	r3, [r2, #0]
E:\work-201605\2012-2016 M0+1-20160318\M0+2-20160325\06-User\SD-KL-CD(V6.5)-20160501\02-Software\KL25-program\ch06-UART-20160501\KL25_UART\Debug/../07_Soft_Component/printf/printf.c:367
#if 1
			precision_used = FALSE;
    2b82:	2300      	movs	r3, #0
    2b84:	67bb      	str	r3, [r7, #120]	; 0x78
E:\work-201605\2012-2016 M0+1-20160318\M0+2-20160325\06-User\SD-KL-CD(V6.5)-20160501\02-Software\KL25-program\ch06-UART-20160501\KL25_UART\Debug/../07_Soft_Component/printf/printf.c:368
			precision_width = 0;
    2b86:	2300      	movs	r3, #0
    2b88:	677b      	str	r3, [r7, #116]	; 0x74
E:\work-201605\2012-2016 M0+1-20160318\M0+2-20160325\06-User\SD-KL-CD(V6.5)-20160501\02-Software\KL25-program\ch06-UART-20160501\KL25_UART\Debug/../07_Soft_Component/printf/printf.c:372
#endif
		}
		//ゆ 杈虹lfLF绛
		switch (/* c = */*++p) {
    2b8a:	2194      	movs	r1, #148	; 0x94
    2b8c:	19c9      	adds	r1, r1, r7
    2b8e:	680b      	ldr	r3, [r1, #0]
    2b90:	3301      	adds	r3, #1
    2b92:	2294      	movs	r2, #148	; 0x94
    2b94:	19d2      	adds	r2, r2, r7
    2b96:	6013      	str	r3, [r2, #0]
    2b98:	2194      	movs	r1, #148	; 0x94
    2b9a:	19c9      	adds	r1, r1, r7
    2b9c:	680b      	ldr	r3, [r1, #0]
    2b9e:	781b      	ldrb	r3, [r3, #0]
    2ba0:	b25b      	sxtb	r3, r3
    2ba2:	2b68      	cmp	r3, #104	; 0x68
    2ba4:	d016      	beq.n	2bd4 <printk+0x2ac>
    2ba6:	2b6c      	cmp	r3, #108	; 0x6c
    2ba8:	d002      	beq.n	2bb0 <printk+0x288>
    2baa:	2b4c      	cmp	r3, #76	; 0x4c
    2bac:	d005      	beq.n	2bba <printk+0x292>
    2bae:	e009      	b.n	2bc4 <printk+0x29c>
E:\work-201605\2012-2016 M0+1-20160318\M0+2-20160325\06-User\SD-KL-CD(V6.5)-20160501\02-Software\KL25-program\ch06-UART-20160501\KL25_UART\Debug/../07_Soft_Component/printf/printf.c:377
		case 'h':
			// length_modifier |= LENMOD_h;
			break;
		case 'l':
			 length_modifier |= LENMOD_l;
    2bb0:	6ffb      	ldr	r3, [r7, #124]	; 0x7c
    2bb2:	2201      	movs	r2, #1
    2bb4:	4313      	orrs	r3, r2
    2bb6:	67fb      	str	r3, [r7, #124]	; 0x7c
E:\work-201605\2012-2016 M0+1-20160318\M0+2-20160325\06-User\SD-KL-CD(V6.5)-20160501\02-Software\KL25-program\ch06-UART-20160501\KL25_UART\Debug/../07_Soft_Component/printf/printf.c:378
			break;
    2bb8:	e00d      	b.n	2bd6 <printk+0x2ae>
E:\work-201605\2012-2016 M0+1-20160318\M0+2-20160325\06-User\SD-KL-CD(V6.5)-20160501\02-Software\KL25-program\ch06-UART-20160501\KL25_UART\Debug/../07_Soft_Component/printf/printf.c:380
		case 'L':
			 length_modifier |= LENMOD_L;
    2bba:	6ffb      	ldr	r3, [r7, #124]	; 0x7c
    2bbc:	2202      	movs	r2, #2
    2bbe:	4313      	orrs	r3, r2
    2bc0:	67fb      	str	r3, [r7, #124]	; 0x7c
E:\work-201605\2012-2016 M0+1-20160318\M0+2-20160325\06-User\SD-KL-CD(V6.5)-20160501\02-Software\KL25-program\ch06-UART-20160501\KL25_UART\Debug/../07_Soft_Component/printf/printf.c:381
			break;
    2bc2:	e008      	b.n	2bd6 <printk+0x2ae>
E:\work-201605\2012-2016 M0+1-20160318\M0+2-20160325\06-User\SD-KL-CD(V6.5)-20160501\02-Software\KL25-program\ch06-UART-20160501\KL25_UART\Debug/../07_Soft_Component/printf/printf.c:384
		default:
			/* we've gone one char too far */
			--p;
    2bc4:	2294      	movs	r2, #148	; 0x94
    2bc6:	19d2      	adds	r2, r2, r7
    2bc8:	6813      	ldr	r3, [r2, #0]
    2bca:	3b01      	subs	r3, #1
    2bcc:	2194      	movs	r1, #148	; 0x94
    2bce:	19c9      	adds	r1, r1, r7
    2bd0:	600b      	str	r3, [r1, #0]
E:\work-201605\2012-2016 M0+1-20160318\M0+2-20160325\06-User\SD-KL-CD(V6.5)-20160501\02-Software\KL25-program\ch06-UART-20160501\KL25_UART\Debug/../07_Soft_Component/printf/printf.c:385
			break;
    2bd2:	e000      	b.n	2bd6 <printk+0x2ae>
E:\work-201605\2012-2016 M0+1-20160318\M0+2-20160325\06-User\SD-KL-CD(V6.5)-20160501\02-Software\KL25-program\ch06-UART-20160501\KL25_UART\Debug/../07_Soft_Component/printf/printf.c:375
		}
		//ゆ 杈虹lfLF绛
		switch (/* c = */*++p) {
		case 'h':
			// length_modifier |= LENMOD_h;
			break;
    2bd4:	46c0      	nop			; (mov r8, r8)
E:\work-201605\2012-2016 M0+1-20160318\M0+2-20160325\06-User\SD-KL-CD(V6.5)-20160501\02-Software\KL25-program\ch06-UART-20160501\KL25_UART\Debug/../07_Soft_Component/printf/printf.c:389
			--p;
			break;
		}

		//p涓烘煎瀛绗涓茬棣板
		switch (c = *++p) {
    2bd6:	2294      	movs	r2, #148	; 0x94
    2bd8:	19d2      	adds	r2, r2, r7
    2bda:	6813      	ldr	r3, [r2, #0]
    2bdc:	3301      	adds	r3, #1
    2bde:	2194      	movs	r1, #148	; 0x94
    2be0:	19c9      	adds	r1, r1, r7
    2be2:	600b      	str	r3, [r1, #0]
    2be4:	2294      	movs	r2, #148	; 0x94
    2be6:	19d2      	adds	r2, r2, r7
    2be8:	6813      	ldr	r3, [r2, #0]
    2bea:	781b      	ldrb	r3, [r3, #0]
    2bec:	b25b      	sxtb	r3, r3
    2bee:	667b      	str	r3, [r7, #100]	; 0x64
    2bf0:	6e7b      	ldr	r3, [r7, #100]	; 0x64
    2bf2:	3b58      	subs	r3, #88	; 0x58
    2bf4:	2b20      	cmp	r3, #32
    2bf6:	d901      	bls.n	2bfc <printk+0x2d4>
    2bf8:	f000 fbbf 	bl	337a <printk+0xa52>
    2bfc:	009a      	lsls	r2, r3, #2
    2bfe:	4b55      	ldr	r3, [pc, #340]	; (2d54 <printk+0x42c>)
    2c00:	18d3      	adds	r3, r2, r3
    2c02:	681b      	ldr	r3, [r3, #0]
    2c04:	469f      	mov	pc, r3
E:\work-201605\2012-2016 M0+1-20160318\M0+2-20160325\06-User\SD-KL-CD(V6.5)-20160501\02-Software\KL25-program\ch06-UART-20160501\KL25_UART\Debug/../07_Soft_Component/printf/printf.c:393
		case 'd':
		case 'i':
			 //姝ゆap涓烘板琛ㄧ绗涓涓
			ival = (int) va_arg(ap, int);  //杩褰帮骞跺ap涓涓涓
    2c06:	687b      	ldr	r3, [r7, #4]
    2c08:	3304      	adds	r3, #4
    2c0a:	607b      	str	r3, [r7, #4]
    2c0c:	687b      	ldr	r3, [r7, #4]
    2c0e:	3b04      	subs	r3, #4
    2c10:	681b      	ldr	r3, [r3, #0]
    2c12:	627b      	str	r3, [r7, #36]	; 0x24
E:\work-201605\2012-2016 M0+1-20160318\M0+2-20160325\06-User\SD-KL-CD(V6.5)-20160501\02-Software\KL25-program\ch06-UART-20160501\KL25_UART\Debug/../07_Soft_Component/printf/printf.c:394
			vlen = printk_mknumstr(vstr, &ival, TRUE, 10);//灏村杞㈡瀛绗淇瀛vstr涓锛杩瀛绗vlen
    2c14:	1c3a      	adds	r2, r7, #0
    2c16:	322c      	adds	r2, #44	; 0x2c
    2c18:	1c3b      	adds	r3, r7, #0
    2c1a:	3324      	adds	r3, #36	; 0x24
    2c1c:	1c10      	adds	r0, r2, #0
    2c1e:	1c19      	adds	r1, r3, #0
    2c20:	2201      	movs	r2, #1
    2c22:	230a      	movs	r3, #10
    2c24:	f7ff fdc8 	bl	27b8 <printk_mknumstr>
    2c28:	1c03      	adds	r3, r0, #0
    2c2a:	218c      	movs	r1, #140	; 0x8c
    2c2c:	19c9      	adds	r1, r1, r7
    2c2e:	600b      	str	r3, [r1, #0]
E:\work-201605\2012-2016 M0+1-20160318\M0+2-20160325\06-User\SD-KL-CD(V6.5)-20160501\02-Software\KL25-program\ch06-UART-20160501\KL25_UART\Debug/../07_Soft_Component/printf/printf.c:395
			vstrp = &vstr[vlen];  //杞㈠涓涓瀛绗
    2c30:	1c3a      	adds	r2, r7, #0
    2c32:	322c      	adds	r2, #44	; 0x2c
    2c34:	218c      	movs	r1, #140	; 0x8c
    2c36:	19c9      	adds	r1, r1, r7
    2c38:	680b      	ldr	r3, [r1, #0]
    2c3a:	18d3      	adds	r3, r2, r3
    2c3c:	2290      	movs	r2, #144	; 0x90
    2c3e:	19d2      	adds	r2, r2, r7
    2c40:	6013      	str	r3, [r2, #0]
E:\work-201605\2012-2016 M0+1-20160318\M0+2-20160325\06-User\SD-KL-CD(V6.5)-20160501\02-Software\KL25-program\ch06-UART-20160501\KL25_UART\Debug/../07_Soft_Component/printf/printf.c:398

			//ュ板浜0锛娣诲'-'凤骞跺瀛绗垮害1
			if (ival < 0) {
    2c42:	6a7b      	ldr	r3, [r7, #36]	; 0x24
    2c44:	2b00      	cmp	r3, #0
    2c46:	da09      	bge.n	2c5c <printk+0x334>
E:\work-201605\2012-2016 M0+1-20160318\M0+2-20160325\06-User\SD-KL-CD(V6.5)-20160501\02-Software\KL25-program\ch06-UART-20160501\KL25_UART\Debug/../07_Soft_Component/printf/printf.c:399
				schar = '-';
    2c48:	232d      	movs	r3, #45	; 0x2d
    2c4a:	673b      	str	r3, [r7, #112]	; 0x70
E:\work-201605\2012-2016 M0+1-20160318\M0+2-20160325\06-User\SD-KL-CD(V6.5)-20160501\02-Software\KL25-program\ch06-UART-20160501\KL25_UART\Debug/../07_Soft_Component/printf/printf.c:400
				++vlen;
    2c4c:	218c      	movs	r1, #140	; 0x8c
    2c4e:	19c9      	adds	r1, r1, r7
    2c50:	680b      	ldr	r3, [r1, #0]
    2c52:	3301      	adds	r3, #1
    2c54:	228c      	movs	r2, #140	; 0x8c
    2c56:	19d2      	adds	r2, r2, r7
    2c58:	6013      	str	r3, [r2, #0]
    2c5a:	e021      	b.n	2ca0 <printk+0x378>
E:\work-201605\2012-2016 M0+1-20160318\M0+2-20160325\06-User\SD-KL-CD(V6.5)-20160501\02-Software\KL25-program\ch06-UART-20160501\KL25_UART\Debug/../07_Soft_Component/printf/printf.c:404
			}
			//ュ颁灏浜0锛娣诲+锋 涓0锛骞跺瀛绗垮害1
			else {
				if (IS_FLAG_PLUS(flags_used)) {
    2c5c:	2384      	movs	r3, #132	; 0x84
    2c5e:	19db      	adds	r3, r3, r7
    2c60:	681a      	ldr	r2, [r3, #0]
    2c62:	2302      	movs	r3, #2
    2c64:	4013      	ands	r3, r2
    2c66:	d009      	beq.n	2c7c <printk+0x354>
E:\work-201605\2012-2016 M0+1-20160318\M0+2-20160325\06-User\SD-KL-CD(V6.5)-20160501\02-Software\KL25-program\ch06-UART-20160501\KL25_UART\Debug/../07_Soft_Component/printf/printf.c:405
					schar = '+';
    2c68:	232b      	movs	r3, #43	; 0x2b
    2c6a:	673b      	str	r3, [r7, #112]	; 0x70
E:\work-201605\2012-2016 M0+1-20160318\M0+2-20160325\06-User\SD-KL-CD(V6.5)-20160501\02-Software\KL25-program\ch06-UART-20160501\KL25_UART\Debug/../07_Soft_Component/printf/printf.c:406
					++vlen;
    2c6c:	218c      	movs	r1, #140	; 0x8c
    2c6e:	19c9      	adds	r1, r1, r7
    2c70:	680b      	ldr	r3, [r1, #0]
    2c72:	3301      	adds	r3, #1
    2c74:	228c      	movs	r2, #140	; 0x8c
    2c76:	19d2      	adds	r2, r2, r7
    2c78:	6013      	str	r3, [r2, #0]
    2c7a:	e011      	b.n	2ca0 <printk+0x378>
E:\work-201605\2012-2016 M0+1-20160318\M0+2-20160325\06-User\SD-KL-CD(V6.5)-20160501\02-Software\KL25-program\ch06-UART-20160501\KL25_UART\Debug/../07_Soft_Component/printf/printf.c:408
				} else {
					if (IS_FLAG_SPACE(flags_used)) {
    2c7c:	2384      	movs	r3, #132	; 0x84
    2c7e:	19db      	adds	r3, r3, r7
    2c80:	681a      	ldr	r2, [r3, #0]
    2c82:	2304      	movs	r3, #4
    2c84:	4013      	ands	r3, r2
    2c86:	d009      	beq.n	2c9c <printk+0x374>
E:\work-201605\2012-2016 M0+1-20160318\M0+2-20160325\06-User\SD-KL-CD(V6.5)-20160501\02-Software\KL25-program\ch06-UART-20160501\KL25_UART\Debug/../07_Soft_Component/printf/printf.c:409
						schar = ' ';
    2c88:	2320      	movs	r3, #32
    2c8a:	673b      	str	r3, [r7, #112]	; 0x70
E:\work-201605\2012-2016 M0+1-20160318\M0+2-20160325\06-User\SD-KL-CD(V6.5)-20160501\02-Software\KL25-program\ch06-UART-20160501\KL25_UART\Debug/../07_Soft_Component/printf/printf.c:410
						++vlen;
    2c8c:	218c      	movs	r1, #140	; 0x8c
    2c8e:	19c9      	adds	r1, r1, r7
    2c90:	680b      	ldr	r3, [r1, #0]
    2c92:	3301      	adds	r3, #1
    2c94:	228c      	movs	r2, #140	; 0x8c
    2c96:	19d2      	adds	r2, r2, r7
    2c98:	6013      	str	r3, [r2, #0]
    2c9a:	e001      	b.n	2ca0 <printk+0x378>
E:\work-201605\2012-2016 M0+1-20160318\M0+2-20160325\06-User\SD-KL-CD(V6.5)-20160501\02-Software\KL25-program\ch06-UART-20160501\KL25_UART\Debug/../07_Soft_Component/printf/printf.c:412
					} else {
						schar = 0;
    2c9c:	2300      	movs	r3, #0
    2c9e:	673b      	str	r3, [r7, #112]	; 0x70
E:\work-201605\2012-2016 M0+1-20160318\M0+2-20160325\06-User\SD-KL-CD(V6.5)-20160501\02-Software\KL25-program\ch06-UART-20160501\KL25_UART\Debug/../07_Soft_Component/printf/printf.c:416
					}
				}
			}
			dschar = FALSE;
    2ca0:	2300      	movs	r3, #0
    2ca2:	66fb      	str	r3, [r7, #108]	; 0x6c
E:\work-201605\2012-2016 M0+1-20160318\M0+2-20160325\06-User\SD-KL-CD(V6.5)-20160501\02-Software\KL25-program\ch06-UART-20160501\KL25_UART\Debug/../07_Soft_Component/printf/printf.c:421

			/*
			 * do the ZERO pad.
			 */
			if (IS_FLAG_ZERO(flags_used)) {
    2ca4:	2384      	movs	r3, #132	; 0x84
    2ca6:	19db      	adds	r3, r3, r7
    2ca8:	681a      	ldr	r2, [r3, #0]
    2caa:	2308      	movs	r3, #8
    2cac:	4013      	ands	r3, r2
    2cae:	d01f      	beq.n	2cf0 <printk+0x3c8>
E:\work-201605\2012-2016 M0+1-20160318\M0+2-20160325\06-User\SD-KL-CD(V6.5)-20160501\02-Software\KL25-program\ch06-UART-20160501\KL25_UART\Debug/../07_Soft_Component/printf/printf.c:422
				if (schar)
    2cb0:	6f3b      	ldr	r3, [r7, #112]	; 0x70
    2cb2:	2b00      	cmp	r3, #0
    2cb4:	d008      	beq.n	2cc8 <printk+0x3a0>
E:\work-201605\2012-2016 M0+1-20160318\M0+2-20160325\06-User\SD-KL-CD(V6.5)-20160501\02-Software\KL25-program\ch06-UART-20160501\KL25_UART\Debug/../07_Soft_Component/printf/printf.c:423
					printk_putc(schar, &count, info);  //杈虹
    2cb6:	6f39      	ldr	r1, [r7, #112]	; 0x70
    2cb8:	1c3a      	adds	r2, r7, #0
    2cba:	3228      	adds	r2, #40	; 0x28
    2cbc:	68fb      	ldr	r3, [r7, #12]
    2cbe:	1c08      	adds	r0, r1, #0
    2cc0:	1c11      	adds	r1, r2, #0
    2cc2:	1c1a      	adds	r2, r3, #0
    2cc4:	f7ff fb82 	bl	23cc <printk_putc>
E:\work-201605\2012-2016 M0+1-20160318\M0+2-20160325\06-User\SD-KL-CD(V6.5)-20160501\02-Software\KL25-program\ch06-UART-20160501\KL25_UART\Debug/../07_Soft_Component/printf/printf.c:424
				dschar = TRUE;
    2cc8:	2301      	movs	r3, #1
    2cca:	66fb      	str	r3, [r7, #108]	; 0x6c
E:\work-201605\2012-2016 M0+1-20160318\M0+2-20160325\06-User\SD-KL-CD(V6.5)-20160501\02-Software\KL25-program\ch06-UART-20160501\KL25_UART\Debug/../07_Soft_Component/printf/printf.c:425
				printk_pad_zero(vlen, field_width, &count, info);
    2ccc:	218c      	movs	r1, #140	; 0x8c
    2cce:	19c9      	adds	r1, r1, r7
    2cd0:	6808      	ldr	r0, [r1, #0]
    2cd2:	2280      	movs	r2, #128	; 0x80
    2cd4:	19d2      	adds	r2, r2, r7
    2cd6:	6811      	ldr	r1, [r2, #0]
    2cd8:	1c3a      	adds	r2, r7, #0
    2cda:	3228      	adds	r2, #40	; 0x28
    2cdc:	68fb      	ldr	r3, [r7, #12]
    2cde:	f7ff fdeb 	bl	28b8 <printk_pad_zero>
E:\work-201605\2012-2016 M0+1-20160318\M0+2-20160325\06-User\SD-KL-CD(V6.5)-20160501\02-Software\KL25-program\ch06-UART-20160501\KL25_UART\Debug/../07_Soft_Component/printf/printf.c:426
				vlen = field_width;
    2ce2:	2180      	movs	r1, #128	; 0x80
    2ce4:	19c9      	adds	r1, r1, r7
    2ce6:	680b      	ldr	r3, [r1, #0]
    2ce8:	228c      	movs	r2, #140	; 0x8c
    2cea:	19d2      	adds	r2, r2, r7
    2cec:	6013      	str	r3, [r2, #0]
    2cee:	e01e      	b.n	2d2e <printk+0x406>
E:\work-201605\2012-2016 M0+1-20160318\M0+2-20160325\06-User\SD-KL-CD(V6.5)-20160501\02-Software\KL25-program\ch06-UART-20160501\KL25_UART\Debug/../07_Soft_Component/printf/printf.c:428
			} else {
				if (!IS_FLAG_MINUS(flags_used)) {
    2cf0:	2384      	movs	r3, #132	; 0x84
    2cf2:	19db      	adds	r3, r3, r7
    2cf4:	681a      	ldr	r2, [r3, #0]
    2cf6:	2301      	movs	r3, #1
    2cf8:	4013      	ands	r3, r2
    2cfa:	d118      	bne.n	2d2e <printk+0x406>
E:\work-201605\2012-2016 M0+1-20160318\M0+2-20160325\06-User\SD-KL-CD(V6.5)-20160501\02-Software\KL25-program\ch06-UART-20160501\KL25_UART\Debug/../07_Soft_Component/printf/printf.c:429
					printk_pad_space(vlen, field_width, &count, info);  //杈虹┖
    2cfc:	218c      	movs	r1, #140	; 0x8c
    2cfe:	19c9      	adds	r1, r1, r7
    2d00:	6808      	ldr	r0, [r1, #0]
    2d02:	2280      	movs	r2, #128	; 0x80
    2d04:	19d2      	adds	r2, r2, r7
    2d06:	6811      	ldr	r1, [r2, #0]
    2d08:	1c3a      	adds	r2, r7, #0
    2d0a:	3228      	adds	r2, #40	; 0x28
    2d0c:	68fb      	ldr	r3, [r7, #12]
    2d0e:	f7ff fdef 	bl	28f0 <printk_pad_space>
E:\work-201605\2012-2016 M0+1-20160318\M0+2-20160325\06-User\SD-KL-CD(V6.5)-20160501\02-Software\KL25-program\ch06-UART-20160501\KL25_UART\Debug/../07_Soft_Component/printf/printf.c:431

					if (schar)
    2d12:	6f3b      	ldr	r3, [r7, #112]	; 0x70
    2d14:	2b00      	cmp	r3, #0
    2d16:	d008      	beq.n	2d2a <printk+0x402>
E:\work-201605\2012-2016 M0+1-20160318\M0+2-20160325\06-User\SD-KL-CD(V6.5)-20160501\02-Software\KL25-program\ch06-UART-20160501\KL25_UART\Debug/../07_Soft_Component/printf/printf.c:432
						printk_putc(schar, &count, info);
    2d18:	6f39      	ldr	r1, [r7, #112]	; 0x70
    2d1a:	1c3a      	adds	r2, r7, #0
    2d1c:	3228      	adds	r2, #40	; 0x28
    2d1e:	68fb      	ldr	r3, [r7, #12]
    2d20:	1c08      	adds	r0, r1, #0
    2d22:	1c11      	adds	r1, r2, #0
    2d24:	1c1a      	adds	r2, r3, #0
    2d26:	f7ff fb51 	bl	23cc <printk_putc>
E:\work-201605\2012-2016 M0+1-20160318\M0+2-20160325\06-User\SD-KL-CD(V6.5)-20160501\02-Software\KL25-program\ch06-UART-20160501\KL25_UART\Debug/../07_Soft_Component/printf/printf.c:433
					dschar = TRUE;
    2d2a:	2301      	movs	r3, #1
    2d2c:	66fb      	str	r3, [r7, #108]	; 0x6c
E:\work-201605\2012-2016 M0+1-20160318\M0+2-20160325\06-User\SD-KL-CD(V6.5)-20160501\02-Software\KL25-program\ch06-UART-20160501\KL25_UART\Debug/../07_Soft_Component/printf/printf.c:439
				}
			}

			/* the string was built in reverse order, now display in */
			/* correct order */
			if (!dschar && schar) {
    2d2e:	6efb      	ldr	r3, [r7, #108]	; 0x6c
    2d30:	2b00      	cmp	r3, #0
    2d32:	d10c      	bne.n	2d4e <printk+0x426>
E:\work-201605\2012-2016 M0+1-20160318\M0+2-20160325\06-User\SD-KL-CD(V6.5)-20160501\02-Software\KL25-program\ch06-UART-20160501\KL25_UART\Debug/../07_Soft_Component/printf/printf.c:439 (discriminator 1)
    2d34:	6f3b      	ldr	r3, [r7, #112]	; 0x70
    2d36:	2b00      	cmp	r3, #0
    2d38:	d009      	beq.n	2d4e <printk+0x426>
E:\work-201605\2012-2016 M0+1-20160318\M0+2-20160325\06-User\SD-KL-CD(V6.5)-20160501\02-Software\KL25-program\ch06-UART-20160501\KL25_UART\Debug/../07_Soft_Component/printf/printf.c:440
				printk_putc(schar, &count, info);
    2d3a:	6f39      	ldr	r1, [r7, #112]	; 0x70
    2d3c:	1c3a      	adds	r2, r7, #0
    2d3e:	3228      	adds	r2, #40	; 0x28
    2d40:	68fb      	ldr	r3, [r7, #12]
    2d42:	1c08      	adds	r0, r1, #0
    2d44:	1c11      	adds	r1, r2, #0
    2d46:	1c1a      	adds	r2, r3, #0
    2d48:	f7ff fb40 	bl	23cc <printk_putc>
E:\work-201605\2012-2016 M0+1-20160318\M0+2-20160325\06-User\SD-KL-CD(V6.5)-20160501\02-Software\KL25-program\ch06-UART-20160501\KL25_UART\Debug/../07_Soft_Component/printf/printf.c:442
			}
			goto cont_xd;  //寮濮璺宠浆
    2d4c:	e268      	b.n	3220 <printk+0x8f8>
    2d4e:	e267      	b.n	3220 <printk+0x8f8>
    2d50:	00004000 	.word	0x00004000
    2d54:	00004044 	.word	0x00004044
E:\work-201605\2012-2016 M0+1-20160318\M0+2-20160325\06-User\SD-KL-CD(V6.5)-20160501\02-Software\KL25-program\ch06-UART-20160501\KL25_UART\Debug/../07_Soft_Component/printf/printf.c:451
			//娴瑰版琚褰 double澶锛缁瑰濡涓锛
			//3.140001 瀵瑰娴规:0x0x4048F5C3锛
			//3.140001 瀵double:0x40091EB85F577E6C
			//瀹浼ュ 芥板 娴规板涓:0x6000000040091EB8 瀹灏惰浆涓double版
			//浣椤哄浜锛浠瑕灏瀛锛跺0x60绉诲扮揣ョ涓瀛浣缃
			if(length_modifier==0)
    2d58:	6ffb      	ldr	r3, [r7, #124]	; 0x7c
    2d5a:	2b00      	cmp	r3, #0
    2d5c:	d11d      	bne.n	2d9a <printk+0x472>
E:\work-201605\2012-2016 M0+1-20160318\M0+2-20160325\06-User\SD-KL-CD(V6.5)-20160501\02-Software\KL25-program\ch06-UART-20160501\KL25_UART\Debug/../07_Soft_Component/printf/printf.c:453
			{
			un1.a1 = (double ) va_arg(ap, double);  //杩褰帮骞跺ap涓涓涓
    2d5e:	687b      	ldr	r3, [r7, #4]
    2d60:	3308      	adds	r3, #8
    2d62:	607b      	str	r3, [r7, #4]
    2d64:	687b      	ldr	r3, [r7, #4]
    2d66:	3b08      	subs	r3, #8
    2d68:	685c      	ldr	r4, [r3, #4]
    2d6a:	681b      	ldr	r3, [r3, #0]
    2d6c:	653b      	str	r3, [r7, #80]	; 0x50
    2d6e:	657c      	str	r4, [r7, #84]	; 0x54
E:\work-201605\2012-2016 M0+1-20160318\M0+2-20160325\06-User\SD-KL-CD(V6.5)-20160501\02-Software\KL25-program\ch06-UART-20160501\KL25_UART\Debug/../07_Soft_Component/printf/printf.c:454
			temp1=un1.tempc.b8;
    2d70:	1c3b      	adds	r3, r7, #0
    2d72:	3363      	adds	r3, #99	; 0x63
    2d74:	1c3a      	adds	r2, r7, #0
    2d76:	3250      	adds	r2, #80	; 0x50
    2d78:	79d2      	ldrb	r2, [r2, #7]
    2d7a:	701a      	strb	r2, [r3, #0]
E:\work-201605\2012-2016 M0+1-20160318\M0+2-20160325\06-User\SD-KL-CD(V6.5)-20160501\02-Software\KL25-program\ch06-UART-20160501\KL25_UART\Debug/../07_Soft_Component/printf/printf.c:455
			un1.c2=un1.c1;
    2d7c:	6d3b      	ldr	r3, [r7, #80]	; 0x50
    2d7e:	657b      	str	r3, [r7, #84]	; 0x54
E:\work-201605\2012-2016 M0+1-20160318\M0+2-20160325\06-User\SD-KL-CD(V6.5)-20160501\02-Software\KL25-program\ch06-UART-20160501\KL25_UART\Debug/../07_Soft_Component/printf/printf.c:456
			un1.c1=un1.c1&0x0000;
    2d80:	2300      	movs	r3, #0
    2d82:	653b      	str	r3, [r7, #80]	; 0x50
E:\work-201605\2012-2016 M0+1-20160318\M0+2-20160325\06-User\SD-KL-CD(V6.5)-20160501\02-Software\KL25-program\ch06-UART-20160501\KL25_UART\Debug/../07_Soft_Component/printf/printf.c:457
			un1.tempc.b4=temp1;
    2d84:	1c3b      	adds	r3, r7, #0
    2d86:	3350      	adds	r3, #80	; 0x50
    2d88:	1c3a      	adds	r2, r7, #0
    2d8a:	3263      	adds	r2, #99	; 0x63
    2d8c:	7812      	ldrb	r2, [r2, #0]
    2d8e:	70da      	strb	r2, [r3, #3]
E:\work-201605\2012-2016 M0+1-20160318\M0+2-20160325\06-User\SD-KL-CD(V6.5)-20160501\02-Software\KL25-program\ch06-UART-20160501\KL25_UART\Debug/../07_Soft_Component/printf/printf.c:458
			fval=un1.a1;
    2d90:	6d3b      	ldr	r3, [r7, #80]	; 0x50
    2d92:	6d7c      	ldr	r4, [r7, #84]	; 0x54
    2d94:	61bb      	str	r3, [r7, #24]
    2d96:	61fc      	str	r4, [r7, #28]
    2d98:	e011      	b.n	2dbe <printk+0x496>
E:\work-201605\2012-2016 M0+1-20160318\M0+2-20160325\06-User\SD-KL-CD(V6.5)-20160501\02-Software\KL25-program\ch06-UART-20160501\KL25_UART\Debug/../07_Soft_Component/printf/printf.c:460
			}
			else if(length_modifier==1 || length_modifier==2)
    2d9a:	6ffb      	ldr	r3, [r7, #124]	; 0x7c
    2d9c:	2b01      	cmp	r3, #1
    2d9e:	d002      	beq.n	2da6 <printk+0x47e>
E:\work-201605\2012-2016 M0+1-20160318\M0+2-20160325\06-User\SD-KL-CD(V6.5)-20160501\02-Software\KL25-program\ch06-UART-20160501\KL25_UART\Debug/../07_Soft_Component/printf/printf.c:460 (discriminator 1)
    2da0:	6ffb      	ldr	r3, [r7, #124]	; 0x7c
    2da2:	2b02      	cmp	r3, #2
    2da4:	d10b      	bne.n	2dbe <printk+0x496>
E:\work-201605\2012-2016 M0+1-20160318\M0+2-20160325\06-User\SD-KL-CD(V6.5)-20160501\02-Software\KL25-program\ch06-UART-20160501\KL25_UART\Debug/../07_Soft_Component/printf/printf.c:462
			{
				ap=ap+4;
    2da6:	687b      	ldr	r3, [r7, #4]
    2da8:	3304      	adds	r3, #4
    2daa:	607b      	str	r3, [r7, #4]
E:\work-201605\2012-2016 M0+1-20160318\M0+2-20160325\06-User\SD-KL-CD(V6.5)-20160501\02-Software\KL25-program\ch06-UART-20160501\KL25_UART\Debug/../07_Soft_Component/printf/printf.c:463
				fval= (double)va_arg(ap,double);
    2dac:	687b      	ldr	r3, [r7, #4]
    2dae:	3308      	adds	r3, #8
    2db0:	607b      	str	r3, [r7, #4]
    2db2:	687b      	ldr	r3, [r7, #4]
    2db4:	3b08      	subs	r3, #8
    2db6:	685c      	ldr	r4, [r3, #4]
    2db8:	681b      	ldr	r3, [r3, #0]
    2dba:	61bb      	str	r3, [r7, #24]
    2dbc:	61fc      	str	r4, [r7, #28]
E:\work-201605\2012-2016 M0+1-20160318\M0+2-20160325\06-User\SD-KL-CD(V6.5)-20160501\02-Software\KL25-program\ch06-UART-20160501\KL25_UART\Debug/../07_Soft_Component/printf/printf.c:466
			}
			//纭瀹浣跨ㄥ扮圭簿搴板
			if(precision_used)
    2dbe:	6fbb      	ldr	r3, [r7, #120]	; 0x78
    2dc0:	2b00      	cmp	r3, #0
    2dc2:	d013      	beq.n	2dec <printk+0x4c4>
E:\work-201605\2012-2016 M0+1-20160318\M0+2-20160325\06-User\SD-KL-CD(V6.5)-20160501\02-Software\KL25-program\ch06-UART-20160501\KL25_UART\Debug/../07_Soft_Component/printf/printf.c:468
			{
				vlen = printk_mkfloatstr(&fval,vstr,precision_width);//灏村杞㈡瀛绗淇瀛vstr涓锛杩瀛绗vlen
    2dc4:	1c39      	adds	r1, r7, #0
    2dc6:	3118      	adds	r1, #24
    2dc8:	1c3a      	adds	r2, r7, #0
    2dca:	322c      	adds	r2, #44	; 0x2c
    2dcc:	6f7b      	ldr	r3, [r7, #116]	; 0x74
    2dce:	1c08      	adds	r0, r1, #0
    2dd0:	1c11      	adds	r1, r2, #0
    2dd2:	1c1a      	adds	r2, r3, #0
    2dd4:	f7ff fb24 	bl	2420 <printk_mkfloatstr>
    2dd8:	1c03      	adds	r3, r0, #0
    2dda:	218c      	movs	r1, #140	; 0x8c
    2ddc:	19c9      	adds	r1, r1, r7
    2dde:	600b      	str	r3, [r1, #0]
E:\work-201605\2012-2016 M0+1-20160318\M0+2-20160325\06-User\SD-KL-CD(V6.5)-20160501\02-Software\KL25-program\ch06-UART-20160501\KL25_UART\Debug/../07_Soft_Component/printf/printf.c:469
				vstrp = &vstr[0];  //杞㈠绗涓涓瀛绗
    2de0:	1c3b      	adds	r3, r7, #0
    2de2:	332c      	adds	r3, #44	; 0x2c
    2de4:	2290      	movs	r2, #144	; 0x90
    2de6:	19d2      	adds	r2, r2, r7
    2de8:	6013      	str	r3, [r2, #0]
    2dea:	e028      	b.n	2e3e <printk+0x516>
E:\work-201605\2012-2016 M0+1-20160318\M0+2-20160325\06-User\SD-KL-CD(V6.5)-20160501\02-Software\KL25-program\ch06-UART-20160501\KL25_UART\Debug/../07_Soft_Component/printf/printf.c:473
			}
			else
			{
				if(length_modifier==0)   //娴瑰绮惧害板扮瑰8浣
    2dec:	6ffb      	ldr	r3, [r7, #124]	; 0x7c
    2dee:	2b00      	cmp	r3, #0
    2df0:	d112      	bne.n	2e18 <printk+0x4f0>
E:\work-201605\2012-2016 M0+1-20160318\M0+2-20160325\06-User\SD-KL-CD(V6.5)-20160501\02-Software\KL25-program\ch06-UART-20160501\KL25_UART\Debug/../07_Soft_Component/printf/printf.c:475
				{
					vlen = printk_mkfloatstr(&fval,vstr,8);//灏村杞㈡瀛绗淇瀛vstr涓锛杩瀛绗vlen
    2df2:	1c3a      	adds	r2, r7, #0
    2df4:	3218      	adds	r2, #24
    2df6:	1c3b      	adds	r3, r7, #0
    2df8:	332c      	adds	r3, #44	; 0x2c
    2dfa:	1c10      	adds	r0, r2, #0
    2dfc:	1c19      	adds	r1, r3, #0
    2dfe:	2208      	movs	r2, #8
    2e00:	f7ff fb0e 	bl	2420 <printk_mkfloatstr>
    2e04:	1c03      	adds	r3, r0, #0
    2e06:	218c      	movs	r1, #140	; 0x8c
    2e08:	19c9      	adds	r1, r1, r7
    2e0a:	600b      	str	r3, [r1, #0]
E:\work-201605\2012-2016 M0+1-20160318\M0+2-20160325\06-User\SD-KL-CD(V6.5)-20160501\02-Software\KL25-program\ch06-UART-20160501\KL25_UART\Debug/../07_Soft_Component/printf/printf.c:476
					vstrp = &vstr[0];  //杞㈠绗涓涓瀛绗
    2e0c:	1c3b      	adds	r3, r7, #0
    2e0e:	332c      	adds	r3, #44	; 0x2c
    2e10:	2290      	movs	r2, #144	; 0x90
    2e12:	19d2      	adds	r2, r2, r7
    2e14:	6013      	str	r3, [r2, #0]
    2e16:	e012      	b.n	2e3e <printk+0x516>
E:\work-201605\2012-2016 M0+1-20160318\M0+2-20160325\06-User\SD-KL-CD(V6.5)-20160501\02-Software\KL25-program\ch06-UART-20160501\KL25_UART\Debug/../07_Soft_Component/printf/printf.c:480
				}
				else
				{
					vlen = printk_mkfloatstr(&fval,vstr,precision_width);//灏村杞㈡瀛绗淇瀛vstr涓锛杩瀛绗vlen
    2e18:	1c39      	adds	r1, r7, #0
    2e1a:	3118      	adds	r1, #24
    2e1c:	1c3a      	adds	r2, r7, #0
    2e1e:	322c      	adds	r2, #44	; 0x2c
    2e20:	6f7b      	ldr	r3, [r7, #116]	; 0x74
    2e22:	1c08      	adds	r0, r1, #0
    2e24:	1c11      	adds	r1, r2, #0
    2e26:	1c1a      	adds	r2, r3, #0
    2e28:	f7ff fafa 	bl	2420 <printk_mkfloatstr>
    2e2c:	1c03      	adds	r3, r0, #0
    2e2e:	218c      	movs	r1, #140	; 0x8c
    2e30:	19c9      	adds	r1, r1, r7
    2e32:	600b      	str	r3, [r1, #0]
E:\work-201605\2012-2016 M0+1-20160318\M0+2-20160325\06-User\SD-KL-CD(V6.5)-20160501\02-Software\KL25-program\ch06-UART-20160501\KL25_UART\Debug/../07_Soft_Component/printf/printf.c:481
					vstrp = &vstr[0];  //杞㈠绗涓涓瀛绗
    2e34:	1c3b      	adds	r3, r7, #0
    2e36:	332c      	adds	r3, #44	; 0x2c
    2e38:	2290      	movs	r2, #144	; 0x90
    2e3a:	19d2      	adds	r2, r2, r7
    2e3c:	6013      	str	r3, [r2, #0]
E:\work-201605\2012-2016 M0+1-20160318\M0+2-20160325\06-User\SD-KL-CD(V6.5)-20160501\02-Software\KL25-program\ch06-UART-20160501\KL25_UART\Debug/../07_Soft_Component/printf/printf.c:487
				}

			}

			//ュ板浜0锛娣诲'-'凤骞跺瀛绗垮害1
			if (fval < 0) {
    2e3e:	69bb      	ldr	r3, [r7, #24]
    2e40:	69fc      	ldr	r4, [r7, #28]
    2e42:	1c18      	adds	r0, r3, #0
    2e44:	1c21      	adds	r1, r4, #0
    2e46:	4bd1      	ldr	r3, [pc, #836]	; (318c <printk+0x864>)
    2e48:	4acf      	ldr	r2, [pc, #828]	; (3188 <printk+0x860>)
    2e4a:	f7fd fdc5 	bl	9d8 <__aeabi_dcmplt>
    2e4e:	1c03      	adds	r3, r0, #0
    2e50:	2b00      	cmp	r3, #0
    2e52:	d009      	beq.n	2e68 <printk+0x540>
E:\work-201605\2012-2016 M0+1-20160318\M0+2-20160325\06-User\SD-KL-CD(V6.5)-20160501\02-Software\KL25-program\ch06-UART-20160501\KL25_UART\Debug/../07_Soft_Component/printf/printf.c:488
				schar = '-';
    2e54:	232d      	movs	r3, #45	; 0x2d
    2e56:	673b      	str	r3, [r7, #112]	; 0x70
E:\work-201605\2012-2016 M0+1-20160318\M0+2-20160325\06-User\SD-KL-CD(V6.5)-20160501\02-Software\KL25-program\ch06-UART-20160501\KL25_UART\Debug/../07_Soft_Component/printf/printf.c:489
				++vlen;
    2e58:	218c      	movs	r1, #140	; 0x8c
    2e5a:	19c9      	adds	r1, r1, r7
    2e5c:	680b      	ldr	r3, [r1, #0]
    2e5e:	3301      	adds	r3, #1
    2e60:	228c      	movs	r2, #140	; 0x8c
    2e62:	19d2      	adds	r2, r2, r7
    2e64:	6013      	str	r3, [r2, #0]
    2e66:	e021      	b.n	2eac <printk+0x584>
E:\work-201605\2012-2016 M0+1-20160318\M0+2-20160325\06-User\SD-KL-CD(V6.5)-20160501\02-Software\KL25-program\ch06-UART-20160501\KL25_UART\Debug/../07_Soft_Component/printf/printf.c:493
			}
			//ュ颁灏浜0锛娣诲+锋 涓0锛骞跺瀛绗垮害1
			else {
				if (IS_FLAG_PLUS(flags_used)) {
    2e68:	2384      	movs	r3, #132	; 0x84
    2e6a:	19db      	adds	r3, r3, r7
    2e6c:	681a      	ldr	r2, [r3, #0]
    2e6e:	2302      	movs	r3, #2
    2e70:	4013      	ands	r3, r2
    2e72:	d009      	beq.n	2e88 <printk+0x560>
E:\work-201605\2012-2016 M0+1-20160318\M0+2-20160325\06-User\SD-KL-CD(V6.5)-20160501\02-Software\KL25-program\ch06-UART-20160501\KL25_UART\Debug/../07_Soft_Component/printf/printf.c:494
					schar = '+';
    2e74:	232b      	movs	r3, #43	; 0x2b
    2e76:	673b      	str	r3, [r7, #112]	; 0x70
E:\work-201605\2012-2016 M0+1-20160318\M0+2-20160325\06-User\SD-KL-CD(V6.5)-20160501\02-Software\KL25-program\ch06-UART-20160501\KL25_UART\Debug/../07_Soft_Component/printf/printf.c:495
					++vlen;
    2e78:	218c      	movs	r1, #140	; 0x8c
    2e7a:	19c9      	adds	r1, r1, r7
    2e7c:	680b      	ldr	r3, [r1, #0]
    2e7e:	3301      	adds	r3, #1
    2e80:	228c      	movs	r2, #140	; 0x8c
    2e82:	19d2      	adds	r2, r2, r7
    2e84:	6013      	str	r3, [r2, #0]
    2e86:	e011      	b.n	2eac <printk+0x584>
E:\work-201605\2012-2016 M0+1-20160318\M0+2-20160325\06-User\SD-KL-CD(V6.5)-20160501\02-Software\KL25-program\ch06-UART-20160501\KL25_UART\Debug/../07_Soft_Component/printf/printf.c:497
				} else {
					if (IS_FLAG_SPACE(flags_used)) {
    2e88:	2384      	movs	r3, #132	; 0x84
    2e8a:	19db      	adds	r3, r3, r7
    2e8c:	681a      	ldr	r2, [r3, #0]
    2e8e:	2304      	movs	r3, #4
    2e90:	4013      	ands	r3, r2
    2e92:	d009      	beq.n	2ea8 <printk+0x580>
E:\work-201605\2012-2016 M0+1-20160318\M0+2-20160325\06-User\SD-KL-CD(V6.5)-20160501\02-Software\KL25-program\ch06-UART-20160501\KL25_UART\Debug/../07_Soft_Component/printf/printf.c:498
						schar = ' ';
    2e94:	2320      	movs	r3, #32
    2e96:	673b      	str	r3, [r7, #112]	; 0x70
E:\work-201605\2012-2016 M0+1-20160318\M0+2-20160325\06-User\SD-KL-CD(V6.5)-20160501\02-Software\KL25-program\ch06-UART-20160501\KL25_UART\Debug/../07_Soft_Component/printf/printf.c:499
						++vlen;
    2e98:	218c      	movs	r1, #140	; 0x8c
    2e9a:	19c9      	adds	r1, r1, r7
    2e9c:	680b      	ldr	r3, [r1, #0]
    2e9e:	3301      	adds	r3, #1
    2ea0:	228c      	movs	r2, #140	; 0x8c
    2ea2:	19d2      	adds	r2, r2, r7
    2ea4:	6013      	str	r3, [r2, #0]
    2ea6:	e001      	b.n	2eac <printk+0x584>
E:\work-201605\2012-2016 M0+1-20160318\M0+2-20160325\06-User\SD-KL-CD(V6.5)-20160501\02-Software\KL25-program\ch06-UART-20160501\KL25_UART\Debug/../07_Soft_Component/printf/printf.c:501
					} else {
						schar = 0;
    2ea8:	2300      	movs	r3, #0
    2eaa:	673b      	str	r3, [r7, #112]	; 0x70
E:\work-201605\2012-2016 M0+1-20160318\M0+2-20160325\06-User\SD-KL-CD(V6.5)-20160501\02-Software\KL25-program\ch06-UART-20160501\KL25_UART\Debug/../07_Soft_Component/printf/printf.c:505
					}
				}
			}
			dschar = FALSE;
    2eac:	2300      	movs	r3, #0
    2eae:	66fb      	str	r3, [r7, #108]	; 0x6c
E:\work-201605\2012-2016 M0+1-20160318\M0+2-20160325\06-User\SD-KL-CD(V6.5)-20160501\02-Software\KL25-program\ch06-UART-20160501\KL25_UART\Debug/../07_Soft_Component/printf/printf.c:510

			/*
			 * do the ZERO pad.
			 */
			if (IS_FLAG_ZERO(flags_used)) {
    2eb0:	2384      	movs	r3, #132	; 0x84
    2eb2:	19db      	adds	r3, r3, r7
    2eb4:	681a      	ldr	r2, [r3, #0]
    2eb6:	2308      	movs	r3, #8
    2eb8:	4013      	ands	r3, r2
    2eba:	d01f      	beq.n	2efc <printk+0x5d4>
E:\work-201605\2012-2016 M0+1-20160318\M0+2-20160325\06-User\SD-KL-CD(V6.5)-20160501\02-Software\KL25-program\ch06-UART-20160501\KL25_UART\Debug/../07_Soft_Component/printf/printf.c:511
				if (schar)
    2ebc:	6f3b      	ldr	r3, [r7, #112]	; 0x70
    2ebe:	2b00      	cmp	r3, #0
    2ec0:	d008      	beq.n	2ed4 <printk+0x5ac>
E:\work-201605\2012-2016 M0+1-20160318\M0+2-20160325\06-User\SD-KL-CD(V6.5)-20160501\02-Software\KL25-program\ch06-UART-20160501\KL25_UART\Debug/../07_Soft_Component/printf/printf.c:512
					printk_putc(schar, &count, info);  //杈虹
    2ec2:	6f39      	ldr	r1, [r7, #112]	; 0x70
    2ec4:	1c3a      	adds	r2, r7, #0
    2ec6:	3228      	adds	r2, #40	; 0x28
    2ec8:	68fb      	ldr	r3, [r7, #12]
    2eca:	1c08      	adds	r0, r1, #0
    2ecc:	1c11      	adds	r1, r2, #0
    2ece:	1c1a      	adds	r2, r3, #0
    2ed0:	f7ff fa7c 	bl	23cc <printk_putc>
E:\work-201605\2012-2016 M0+1-20160318\M0+2-20160325\06-User\SD-KL-CD(V6.5)-20160501\02-Software\KL25-program\ch06-UART-20160501\KL25_UART\Debug/../07_Soft_Component/printf/printf.c:513
				dschar = TRUE;
    2ed4:	2301      	movs	r3, #1
    2ed6:	66fb      	str	r3, [r7, #108]	; 0x6c
E:\work-201605\2012-2016 M0+1-20160318\M0+2-20160325\06-User\SD-KL-CD(V6.5)-20160501\02-Software\KL25-program\ch06-UART-20160501\KL25_UART\Debug/../07_Soft_Component/printf/printf.c:514
				printk_pad_zero(vlen, field_width, &count, info);
    2ed8:	218c      	movs	r1, #140	; 0x8c
    2eda:	19c9      	adds	r1, r1, r7
    2edc:	6808      	ldr	r0, [r1, #0]
    2ede:	2280      	movs	r2, #128	; 0x80
    2ee0:	19d2      	adds	r2, r2, r7
    2ee2:	6811      	ldr	r1, [r2, #0]
    2ee4:	1c3a      	adds	r2, r7, #0
    2ee6:	3228      	adds	r2, #40	; 0x28
    2ee8:	68fb      	ldr	r3, [r7, #12]
    2eea:	f7ff fce5 	bl	28b8 <printk_pad_zero>
E:\work-201605\2012-2016 M0+1-20160318\M0+2-20160325\06-User\SD-KL-CD(V6.5)-20160501\02-Software\KL25-program\ch06-UART-20160501\KL25_UART\Debug/../07_Soft_Component/printf/printf.c:515
				vlen = field_width;
    2eee:	2180      	movs	r1, #128	; 0x80
    2ef0:	19c9      	adds	r1, r1, r7
    2ef2:	680b      	ldr	r3, [r1, #0]
    2ef4:	228c      	movs	r2, #140	; 0x8c
    2ef6:	19d2      	adds	r2, r2, r7
    2ef8:	6013      	str	r3, [r2, #0]
    2efa:	e01e      	b.n	2f3a <printk+0x612>
E:\work-201605\2012-2016 M0+1-20160318\M0+2-20160325\06-User\SD-KL-CD(V6.5)-20160501\02-Software\KL25-program\ch06-UART-20160501\KL25_UART\Debug/../07_Soft_Component/printf/printf.c:517
			} else {
				if (!IS_FLAG_MINUS(flags_used)) {
    2efc:	2384      	movs	r3, #132	; 0x84
    2efe:	19db      	adds	r3, r3, r7
    2f00:	681a      	ldr	r2, [r3, #0]
    2f02:	2301      	movs	r3, #1
    2f04:	4013      	ands	r3, r2
    2f06:	d118      	bne.n	2f3a <printk+0x612>
E:\work-201605\2012-2016 M0+1-20160318\M0+2-20160325\06-User\SD-KL-CD(V6.5)-20160501\02-Software\KL25-program\ch06-UART-20160501\KL25_UART\Debug/../07_Soft_Component/printf/printf.c:518
					printk_pad_space(vlen, field_width, &count, info);  //杈虹┖
    2f08:	218c      	movs	r1, #140	; 0x8c
    2f0a:	19c9      	adds	r1, r1, r7
    2f0c:	6808      	ldr	r0, [r1, #0]
    2f0e:	2280      	movs	r2, #128	; 0x80
    2f10:	19d2      	adds	r2, r2, r7
    2f12:	6811      	ldr	r1, [r2, #0]
    2f14:	1c3a      	adds	r2, r7, #0
    2f16:	3228      	adds	r2, #40	; 0x28
    2f18:	68fb      	ldr	r3, [r7, #12]
    2f1a:	f7ff fce9 	bl	28f0 <printk_pad_space>
E:\work-201605\2012-2016 M0+1-20160318\M0+2-20160325\06-User\SD-KL-CD(V6.5)-20160501\02-Software\KL25-program\ch06-UART-20160501\KL25_UART\Debug/../07_Soft_Component/printf/printf.c:520

					if (schar)
    2f1e:	6f3b      	ldr	r3, [r7, #112]	; 0x70
    2f20:	2b00      	cmp	r3, #0
    2f22:	d008      	beq.n	2f36 <printk+0x60e>
E:\work-201605\2012-2016 M0+1-20160318\M0+2-20160325\06-User\SD-KL-CD(V6.5)-20160501\02-Software\KL25-program\ch06-UART-20160501\KL25_UART\Debug/../07_Soft_Component/printf/printf.c:521
						printk_putc(schar, &count, info);
    2f24:	6f39      	ldr	r1, [r7, #112]	; 0x70
    2f26:	1c3a      	adds	r2, r7, #0
    2f28:	3228      	adds	r2, #40	; 0x28
    2f2a:	68fb      	ldr	r3, [r7, #12]
    2f2c:	1c08      	adds	r0, r1, #0
    2f2e:	1c11      	adds	r1, r2, #0
    2f30:	1c1a      	adds	r2, r3, #0
    2f32:	f7ff fa4b 	bl	23cc <printk_putc>
E:\work-201605\2012-2016 M0+1-20160318\M0+2-20160325\06-User\SD-KL-CD(V6.5)-20160501\02-Software\KL25-program\ch06-UART-20160501\KL25_UART\Debug/../07_Soft_Component/printf/printf.c:522
					dschar = TRUE;
    2f36:	2301      	movs	r3, #1
    2f38:	66fb      	str	r3, [r7, #108]	; 0x6c
E:\work-201605\2012-2016 M0+1-20160318\M0+2-20160325\06-User\SD-KL-CD(V6.5)-20160501\02-Software\KL25-program\ch06-UART-20160501\KL25_UART\Debug/../07_Soft_Component/printf/printf.c:528
				}
			}

			/* the string was built in reverse order, now display in */
			/* correct order */
			if (!dschar && schar) {
    2f3a:	6efb      	ldr	r3, [r7, #108]	; 0x6c
    2f3c:	2b00      	cmp	r3, #0
    2f3e:	d10c      	bne.n	2f5a <printk+0x632>
E:\work-201605\2012-2016 M0+1-20160318\M0+2-20160325\06-User\SD-KL-CD(V6.5)-20160501\02-Software\KL25-program\ch06-UART-20160501\KL25_UART\Debug/../07_Soft_Component/printf/printf.c:528 (discriminator 1)
    2f40:	6f3b      	ldr	r3, [r7, #112]	; 0x70
    2f42:	2b00      	cmp	r3, #0
    2f44:	d009      	beq.n	2f5a <printk+0x632>
E:\work-201605\2012-2016 M0+1-20160318\M0+2-20160325\06-User\SD-KL-CD(V6.5)-20160501\02-Software\KL25-program\ch06-UART-20160501\KL25_UART\Debug/../07_Soft_Component/printf/printf.c:529
				printk_putc(schar, &count, info);
    2f46:	6f39      	ldr	r1, [r7, #112]	; 0x70
    2f48:	1c3a      	adds	r2, r7, #0
    2f4a:	3228      	adds	r2, #40	; 0x28
    2f4c:	68fb      	ldr	r3, [r7, #12]
    2f4e:	1c08      	adds	r0, r1, #0
    2f50:	1c11      	adds	r1, r2, #0
    2f52:	1c1a      	adds	r2, r3, #0
    2f54:	f7ff fa3a 	bl	23cc <printk_putc>
E:\work-201605\2012-2016 M0+1-20160318\M0+2-20160325\06-User\SD-KL-CD(V6.5)-20160501\02-Software\KL25-program\ch06-UART-20160501\KL25_UART\Debug/../07_Soft_Component/printf/printf.c:531
			}
			while (*vstrp)
    2f58:	e011      	b.n	2f7e <printk+0x656>
    2f5a:	e010      	b.n	2f7e <printk+0x656>
E:\work-201605\2012-2016 M0+1-20160318\M0+2-20160325\06-User\SD-KL-CD(V6.5)-20160501\02-Software\KL25-program\ch06-UART-20160501\KL25_UART\Debug/../07_Soft_Component/printf/printf.c:532
				printk_putc(*vstrp++, &count, info);
    2f5c:	2190      	movs	r1, #144	; 0x90
    2f5e:	19c9      	adds	r1, r1, r7
    2f60:	680b      	ldr	r3, [r1, #0]
    2f62:	1c5a      	adds	r2, r3, #1
    2f64:	2190      	movs	r1, #144	; 0x90
    2f66:	19c9      	adds	r1, r1, r7
    2f68:	600a      	str	r2, [r1, #0]
    2f6a:	781b      	ldrb	r3, [r3, #0]
    2f6c:	b259      	sxtb	r1, r3
    2f6e:	1c3a      	adds	r2, r7, #0
    2f70:	3228      	adds	r2, #40	; 0x28
    2f72:	68fb      	ldr	r3, [r7, #12]
    2f74:	1c08      	adds	r0, r1, #0
    2f76:	1c11      	adds	r1, r2, #0
    2f78:	1c1a      	adds	r2, r3, #0
    2f7a:	f7ff fa27 	bl	23cc <printk_putc>
E:\work-201605\2012-2016 M0+1-20160318\M0+2-20160325\06-User\SD-KL-CD(V6.5)-20160501\02-Software\KL25-program\ch06-UART-20160501\KL25_UART\Debug/../07_Soft_Component/printf/printf.c:531 (discriminator 1)
			/* the string was built in reverse order, now display in */
			/* correct order */
			if (!dschar && schar) {
				printk_putc(schar, &count, info);
			}
			while (*vstrp)
    2f7e:	2290      	movs	r2, #144	; 0x90
    2f80:	19d2      	adds	r2, r2, r7
    2f82:	6813      	ldr	r3, [r2, #0]
    2f84:	781b      	ldrb	r3, [r3, #0]
    2f86:	2b00      	cmp	r3, #0
    2f88:	d1e8      	bne.n	2f5c <printk+0x634>
E:\work-201605\2012-2016 M0+1-20160318\M0+2-20160325\06-User\SD-KL-CD(V6.5)-20160501\02-Software\KL25-program\ch06-UART-20160501\KL25_UART\Debug/../07_Soft_Component/printf/printf.c:533
				printk_putc(*vstrp++, &count, info);
			if (IS_FLAG_MINUS(flags_used)) {
    2f8a:	2384      	movs	r3, #132	; 0x84
    2f8c:	19db      	adds	r3, r3, r7
    2f8e:	681a      	ldr	r2, [r3, #0]
    2f90:	2301      	movs	r3, #1
    2f92:	4013      	ands	r3, r2
    2f94:	d00b      	beq.n	2fae <printk+0x686>
E:\work-201605\2012-2016 M0+1-20160318\M0+2-20160325\06-User\SD-KL-CD(V6.5)-20160501\02-Software\KL25-program\ch06-UART-20160501\KL25_UART\Debug/../07_Soft_Component/printf/printf.c:534
				printk_pad_space(vlen, field_width, &count, info);
    2f96:	218c      	movs	r1, #140	; 0x8c
    2f98:	19c9      	adds	r1, r1, r7
    2f9a:	6808      	ldr	r0, [r1, #0]
    2f9c:	2280      	movs	r2, #128	; 0x80
    2f9e:	19d2      	adds	r2, r2, r7
    2fa0:	6811      	ldr	r1, [r2, #0]
    2fa2:	1c3a      	adds	r2, r7, #0
    2fa4:	3228      	adds	r2, #40	; 0x28
    2fa6:	68fb      	ldr	r3, [r7, #12]
    2fa8:	f7ff fca2 	bl	28f0 <printk_pad_space>
E:\work-201605\2012-2016 M0+1-20160318\M0+2-20160325\06-User\SD-KL-CD(V6.5)-20160501\02-Software\KL25-program\ch06-UART-20160501\KL25_UART\Debug/../07_Soft_Component/printf/printf.c:536
			}
            break;
    2fac:	e1ef      	b.n	338e <printk+0xa66>
    2fae:	e1ee      	b.n	338e <printk+0xa66>
E:\work-201605\2012-2016 M0+1-20160318\M0+2-20160325\06-User\SD-KL-CD(V6.5)-20160501\02-Software\KL25-program\ch06-UART-20160501\KL25_UART\Debug/../07_Soft_Component/printf/printf.c:540
        //浠ヤ16杩舵村舰杈
		case 'x':
		case 'X':
			uval = (unsigned int) va_arg(ap, unsigned int);
    2fb0:	687b      	ldr	r3, [r7, #4]
    2fb2:	3304      	adds	r3, #4
    2fb4:	607b      	str	r3, [r7, #4]
    2fb6:	687b      	ldr	r3, [r7, #4]
    2fb8:	3b04      	subs	r3, #4
    2fba:	681b      	ldr	r3, [r3, #0]
    2fbc:	617b      	str	r3, [r7, #20]
E:\work-201605\2012-2016 M0+1-20160318\M0+2-20160325\06-User\SD-KL-CD(V6.5)-20160501\02-Software\KL25-program\ch06-UART-20160501\KL25_UART\Debug/../07_Soft_Component/printf/printf.c:541
			vlen = printk_mknumstr(vstr, &uval, FALSE, 16);
    2fbe:	1c3a      	adds	r2, r7, #0
    2fc0:	322c      	adds	r2, #44	; 0x2c
    2fc2:	1c3b      	adds	r3, r7, #0
    2fc4:	3314      	adds	r3, #20
    2fc6:	1c10      	adds	r0, r2, #0
    2fc8:	1c19      	adds	r1, r3, #0
    2fca:	2200      	movs	r2, #0
    2fcc:	2310      	movs	r3, #16
    2fce:	f7ff fbf3 	bl	27b8 <printk_mknumstr>
    2fd2:	1c03      	adds	r3, r0, #0
    2fd4:	218c      	movs	r1, #140	; 0x8c
    2fd6:	19c9      	adds	r1, r1, r7
    2fd8:	600b      	str	r3, [r1, #0]
E:\work-201605\2012-2016 M0+1-20160318\M0+2-20160325\06-User\SD-KL-CD(V6.5)-20160501\02-Software\KL25-program\ch06-UART-20160501\KL25_UART\Debug/../07_Soft_Component/printf/printf.c:542
			vstrp = &vstr[vlen];
    2fda:	1c3a      	adds	r2, r7, #0
    2fdc:	322c      	adds	r2, #44	; 0x2c
    2fde:	218c      	movs	r1, #140	; 0x8c
    2fe0:	19c9      	adds	r1, r1, r7
    2fe2:	680b      	ldr	r3, [r1, #0]
    2fe4:	18d3      	adds	r3, r2, r3
    2fe6:	2290      	movs	r2, #144	; 0x90
    2fe8:	19d2      	adds	r2, r2, r7
    2fea:	6013      	str	r3, [r2, #0]
E:\work-201605\2012-2016 M0+1-20160318\M0+2-20160325\06-User\SD-KL-CD(V6.5)-20160501\02-Software\KL25-program\ch06-UART-20160501\KL25_UART\Debug/../07_Soft_Component/printf/printf.c:544

			dschar = FALSE;
    2fec:	2300      	movs	r3, #0
    2fee:	66fb      	str	r3, [r7, #108]	; 0x6c
E:\work-201605\2012-2016 M0+1-20160318\M0+2-20160325\06-User\SD-KL-CD(V6.5)-20160501\02-Software\KL25-program\ch06-UART-20160501\KL25_UART\Debug/../07_Soft_Component/printf/printf.c:545
			if (IS_FLAG_ZERO(flags_used)) {
    2ff0:	2384      	movs	r3, #132	; 0x84
    2ff2:	19db      	adds	r3, r3, r7
    2ff4:	681a      	ldr	r2, [r3, #0]
    2ff6:	2308      	movs	r3, #8
    2ff8:	4013      	ands	r3, r2
    2ffa:	d029      	beq.n	3050 <printk+0x728>
E:\work-201605\2012-2016 M0+1-20160318\M0+2-20160325\06-User\SD-KL-CD(V6.5)-20160501\02-Software\KL25-program\ch06-UART-20160501\KL25_UART\Debug/../07_Soft_Component/printf/printf.c:546
				if (IS_FLAG_POUND(flags_used)) {
    2ffc:	2184      	movs	r1, #132	; 0x84
    2ffe:	19c9      	adds	r1, r1, r7
    3000:	680a      	ldr	r2, [r1, #0]
    3002:	2310      	movs	r3, #16
    3004:	4013      	ands	r3, r2
    3006:	d011      	beq.n	302c <printk+0x704>
E:\work-201605\2012-2016 M0+1-20160318\M0+2-20160325\06-User\SD-KL-CD(V6.5)-20160501\02-Software\KL25-program\ch06-UART-20160501\KL25_UART\Debug/../07_Soft_Component/printf/printf.c:547
					printk_putc('0', &count, info);
    3008:	1c3a      	adds	r2, r7, #0
    300a:	3228      	adds	r2, #40	; 0x28
    300c:	68fb      	ldr	r3, [r7, #12]
    300e:	2030      	movs	r0, #48	; 0x30
    3010:	1c11      	adds	r1, r2, #0
    3012:	1c1a      	adds	r2, r3, #0
    3014:	f7ff f9da 	bl	23cc <printk_putc>
E:\work-201605\2012-2016 M0+1-20160318\M0+2-20160325\06-User\SD-KL-CD(V6.5)-20160501\02-Software\KL25-program\ch06-UART-20160501\KL25_UART\Debug/../07_Soft_Component/printf/printf.c:548
					printk_putc('x', &count, info);
    3018:	1c3a      	adds	r2, r7, #0
    301a:	3228      	adds	r2, #40	; 0x28
    301c:	68fb      	ldr	r3, [r7, #12]
    301e:	2078      	movs	r0, #120	; 0x78
    3020:	1c11      	adds	r1, r2, #0
    3022:	1c1a      	adds	r2, r3, #0
    3024:	f7ff f9d2 	bl	23cc <printk_putc>
E:\work-201605\2012-2016 M0+1-20160318\M0+2-20160325\06-User\SD-KL-CD(V6.5)-20160501\02-Software\KL25-program\ch06-UART-20160501\KL25_UART\Debug/../07_Soft_Component/printf/printf.c:550
					/*vlen += 2;*/
					dschar = TRUE;
    3028:	2301      	movs	r3, #1
    302a:	66fb      	str	r3, [r7, #108]	; 0x6c
E:\work-201605\2012-2016 M0+1-20160318\M0+2-20160325\06-User\SD-KL-CD(V6.5)-20160501\02-Software\KL25-program\ch06-UART-20160501\KL25_UART\Debug/../07_Soft_Component/printf/printf.c:552
				}
				printk_pad_zero(vlen, field_width, &count, info);
    302c:	228c      	movs	r2, #140	; 0x8c
    302e:	19d2      	adds	r2, r2, r7
    3030:	6810      	ldr	r0, [r2, #0]
    3032:	2380      	movs	r3, #128	; 0x80
    3034:	19db      	adds	r3, r3, r7
    3036:	6819      	ldr	r1, [r3, #0]
    3038:	1c3a      	adds	r2, r7, #0
    303a:	3228      	adds	r2, #40	; 0x28
    303c:	68fb      	ldr	r3, [r7, #12]
    303e:	f7ff fc3b 	bl	28b8 <printk_pad_zero>
E:\work-201605\2012-2016 M0+1-20160318\M0+2-20160325\06-User\SD-KL-CD(V6.5)-20160501\02-Software\KL25-program\ch06-UART-20160501\KL25_UART\Debug/../07_Soft_Component/printf/printf.c:553
				vlen = field_width;
    3042:	2180      	movs	r1, #128	; 0x80
    3044:	19c9      	adds	r1, r1, r7
    3046:	680b      	ldr	r3, [r1, #0]
    3048:	228c      	movs	r2, #140	; 0x8c
    304a:	19d2      	adds	r2, r2, r7
    304c:	6013      	str	r3, [r2, #0]
    304e:	e035      	b.n	30bc <printk+0x794>
E:\work-201605\2012-2016 M0+1-20160318\M0+2-20160325\06-User\SD-KL-CD(V6.5)-20160501\02-Software\KL25-program\ch06-UART-20160501\KL25_UART\Debug/../07_Soft_Component/printf/printf.c:555
			} else {
				if (!IS_FLAG_MINUS(flags_used)) {
    3050:	2384      	movs	r3, #132	; 0x84
    3052:	19db      	adds	r3, r3, r7
    3054:	681a      	ldr	r2, [r3, #0]
    3056:	2301      	movs	r3, #1
    3058:	4013      	ands	r3, r2
    305a:	d12f      	bne.n	30bc <printk+0x794>
E:\work-201605\2012-2016 M0+1-20160318\M0+2-20160325\06-User\SD-KL-CD(V6.5)-20160501\02-Software\KL25-program\ch06-UART-20160501\KL25_UART\Debug/../07_Soft_Component/printf/printf.c:556
					if (IS_FLAG_POUND(flags_used)) {
    305c:	2184      	movs	r1, #132	; 0x84
    305e:	19c9      	adds	r1, r1, r7
    3060:	680a      	ldr	r2, [r1, #0]
    3062:	2310      	movs	r3, #16
    3064:	4013      	ands	r3, r2
    3066:	d006      	beq.n	3076 <printk+0x74e>
E:\work-201605\2012-2016 M0+1-20160318\M0+2-20160325\06-User\SD-KL-CD(V6.5)-20160501\02-Software\KL25-program\ch06-UART-20160501\KL25_UART\Debug/../07_Soft_Component/printf/printf.c:557
						vlen += 2;
    3068:	228c      	movs	r2, #140	; 0x8c
    306a:	19d2      	adds	r2, r2, r7
    306c:	6813      	ldr	r3, [r2, #0]
    306e:	3302      	adds	r3, #2
    3070:	218c      	movs	r1, #140	; 0x8c
    3072:	19c9      	adds	r1, r1, r7
    3074:	600b      	str	r3, [r1, #0]
E:\work-201605\2012-2016 M0+1-20160318\M0+2-20160325\06-User\SD-KL-CD(V6.5)-20160501\02-Software\KL25-program\ch06-UART-20160501\KL25_UART\Debug/../07_Soft_Component/printf/printf.c:559
					}
					printk_pad_space(vlen, field_width, &count, info);
    3076:	228c      	movs	r2, #140	; 0x8c
    3078:	19d2      	adds	r2, r2, r7
    307a:	6810      	ldr	r0, [r2, #0]
    307c:	2380      	movs	r3, #128	; 0x80
    307e:	19db      	adds	r3, r3, r7
    3080:	6819      	ldr	r1, [r3, #0]
    3082:	1c3a      	adds	r2, r7, #0
    3084:	3228      	adds	r2, #40	; 0x28
    3086:	68fb      	ldr	r3, [r7, #12]
    3088:	f7ff fc32 	bl	28f0 <printk_pad_space>
E:\work-201605\2012-2016 M0+1-20160318\M0+2-20160325\06-User\SD-KL-CD(V6.5)-20160501\02-Software\KL25-program\ch06-UART-20160501\KL25_UART\Debug/../07_Soft_Component/printf/printf.c:560
					if (IS_FLAG_POUND(flags_used)) {
    308c:	2184      	movs	r1, #132	; 0x84
    308e:	19c9      	adds	r1, r1, r7
    3090:	680a      	ldr	r2, [r1, #0]
    3092:	2310      	movs	r3, #16
    3094:	4013      	ands	r3, r2
    3096:	d011      	beq.n	30bc <printk+0x794>
E:\work-201605\2012-2016 M0+1-20160318\M0+2-20160325\06-User\SD-KL-CD(V6.5)-20160501\02-Software\KL25-program\ch06-UART-20160501\KL25_UART\Debug/../07_Soft_Component/printf/printf.c:561
						printk_putc('0', &count, info);
    3098:	1c3a      	adds	r2, r7, #0
    309a:	3228      	adds	r2, #40	; 0x28
    309c:	68fb      	ldr	r3, [r7, #12]
    309e:	2030      	movs	r0, #48	; 0x30
    30a0:	1c11      	adds	r1, r2, #0
    30a2:	1c1a      	adds	r2, r3, #0
    30a4:	f7ff f992 	bl	23cc <printk_putc>
E:\work-201605\2012-2016 M0+1-20160318\M0+2-20160325\06-User\SD-KL-CD(V6.5)-20160501\02-Software\KL25-program\ch06-UART-20160501\KL25_UART\Debug/../07_Soft_Component/printf/printf.c:562
						printk_putc('x', &count, info);
    30a8:	1c3a      	adds	r2, r7, #0
    30aa:	3228      	adds	r2, #40	; 0x28
    30ac:	68fb      	ldr	r3, [r7, #12]
    30ae:	2078      	movs	r0, #120	; 0x78
    30b0:	1c11      	adds	r1, r2, #0
    30b2:	1c1a      	adds	r2, r3, #0
    30b4:	f7ff f98a 	bl	23cc <printk_putc>
E:\work-201605\2012-2016 M0+1-20160318\M0+2-20160325\06-User\SD-KL-CD(V6.5)-20160501\02-Software\KL25-program\ch06-UART-20160501\KL25_UART\Debug/../07_Soft_Component/printf/printf.c:563
						dschar = TRUE;
    30b8:	2301      	movs	r3, #1
    30ba:	66fb      	str	r3, [r7, #108]	; 0x6c
E:\work-201605\2012-2016 M0+1-20160318\M0+2-20160325\06-User\SD-KL-CD(V6.5)-20160501\02-Software\KL25-program\ch06-UART-20160501\KL25_UART\Debug/../07_Soft_Component/printf/printf.c:568
					}
				}
			}

			if ((IS_FLAG_POUND(flags_used)) && !dschar) {
    30bc:	2384      	movs	r3, #132	; 0x84
    30be:	19db      	adds	r3, r3, r7
    30c0:	681a      	ldr	r2, [r3, #0]
    30c2:	2310      	movs	r3, #16
    30c4:	4013      	ands	r3, r2
    30c6:	d01a      	beq.n	30fe <printk+0x7d6>
E:\work-201605\2012-2016 M0+1-20160318\M0+2-20160325\06-User\SD-KL-CD(V6.5)-20160501\02-Software\KL25-program\ch06-UART-20160501\KL25_UART\Debug/../07_Soft_Component/printf/printf.c:568 (discriminator 1)
    30c8:	6efb      	ldr	r3, [r7, #108]	; 0x6c
    30ca:	2b00      	cmp	r3, #0
    30cc:	d117      	bne.n	30fe <printk+0x7d6>
E:\work-201605\2012-2016 M0+1-20160318\M0+2-20160325\06-User\SD-KL-CD(V6.5)-20160501\02-Software\KL25-program\ch06-UART-20160501\KL25_UART\Debug/../07_Soft_Component/printf/printf.c:569
				printk_putc('0', &count, info);
    30ce:	1c3a      	adds	r2, r7, #0
    30d0:	3228      	adds	r2, #40	; 0x28
    30d2:	68fb      	ldr	r3, [r7, #12]
    30d4:	2030      	movs	r0, #48	; 0x30
    30d6:	1c11      	adds	r1, r2, #0
    30d8:	1c1a      	adds	r2, r3, #0
    30da:	f7ff f977 	bl	23cc <printk_putc>
E:\work-201605\2012-2016 M0+1-20160318\M0+2-20160325\06-User\SD-KL-CD(V6.5)-20160501\02-Software\KL25-program\ch06-UART-20160501\KL25_UART\Debug/../07_Soft_Component/printf/printf.c:570
				printk_putc('x', &count, info);
    30de:	1c3a      	adds	r2, r7, #0
    30e0:	3228      	adds	r2, #40	; 0x28
    30e2:	68fb      	ldr	r3, [r7, #12]
    30e4:	2078      	movs	r0, #120	; 0x78
    30e6:	1c11      	adds	r1, r2, #0
    30e8:	1c1a      	adds	r2, r3, #0
    30ea:	f7ff f96f 	bl	23cc <printk_putc>
E:\work-201605\2012-2016 M0+1-20160318\M0+2-20160325\06-User\SD-KL-CD(V6.5)-20160501\02-Software\KL25-program\ch06-UART-20160501\KL25_UART\Debug/../07_Soft_Component/printf/printf.c:571
				vlen += 2;
    30ee:	218c      	movs	r1, #140	; 0x8c
    30f0:	19c9      	adds	r1, r1, r7
    30f2:	680b      	ldr	r3, [r1, #0]
    30f4:	3302      	adds	r3, #2
    30f6:	228c      	movs	r2, #140	; 0x8c
    30f8:	19d2      	adds	r2, r2, r7
    30fa:	6013      	str	r3, [r2, #0]
E:\work-201605\2012-2016 M0+1-20160318\M0+2-20160325\06-User\SD-KL-CD(V6.5)-20160501\02-Software\KL25-program\ch06-UART-20160501\KL25_UART\Debug/../07_Soft_Component/printf/printf.c:573
			}
			goto cont_xd;
    30fc:	e090      	b.n	3220 <printk+0x8f8>
    30fe:	e08f      	b.n	3220 <printk+0x8f8>
E:\work-201605\2012-2016 M0+1-20160318\M0+2-20160325\06-User\SD-KL-CD(V6.5)-20160501\02-Software\KL25-program\ch06-UART-20160501\KL25_UART\Debug/../07_Soft_Component/printf/printf.c:576
		//绗蜂互杩惰〃绀虹存拌
		case 'o':
			uval = (unsigned int) va_arg(ap, unsigned int);
    3100:	687b      	ldr	r3, [r7, #4]
    3102:	3304      	adds	r3, #4
    3104:	607b      	str	r3, [r7, #4]
    3106:	687b      	ldr	r3, [r7, #4]
    3108:	3b04      	subs	r3, #4
    310a:	681b      	ldr	r3, [r3, #0]
    310c:	617b      	str	r3, [r7, #20]
E:\work-201605\2012-2016 M0+1-20160318\M0+2-20160325\06-User\SD-KL-CD(V6.5)-20160501\02-Software\KL25-program\ch06-UART-20160501\KL25_UART\Debug/../07_Soft_Component/printf/printf.c:577
			vlen = printk_mknumstr(vstr, &uval, FALSE, 8);
    310e:	1c3a      	adds	r2, r7, #0
    3110:	322c      	adds	r2, #44	; 0x2c
    3112:	1c3b      	adds	r3, r7, #0
    3114:	3314      	adds	r3, #20
    3116:	1c10      	adds	r0, r2, #0
    3118:	1c19      	adds	r1, r3, #0
    311a:	2200      	movs	r2, #0
    311c:	2308      	movs	r3, #8
    311e:	f7ff fb4b 	bl	27b8 <printk_mknumstr>
    3122:	1c03      	adds	r3, r0, #0
    3124:	218c      	movs	r1, #140	; 0x8c
    3126:	19c9      	adds	r1, r1, r7
    3128:	600b      	str	r3, [r1, #0]
E:\work-201605\2012-2016 M0+1-20160318\M0+2-20160325\06-User\SD-KL-CD(V6.5)-20160501\02-Software\KL25-program\ch06-UART-20160501\KL25_UART\Debug/../07_Soft_Component/printf/printf.c:578
			goto cont_u;
    312a:	e046      	b.n	31ba <printk+0x892>
E:\work-201605\2012-2016 M0+1-20160318\M0+2-20160325\06-User\SD-KL-CD(V6.5)-20160501\02-Software\KL25-program\ch06-UART-20160501\KL25_UART\Debug/../07_Soft_Component/printf/printf.c:581
		//浜杩惰
		case 'b':
			uval = (unsigned int) va_arg(ap, unsigned int);
    312c:	687b      	ldr	r3, [r7, #4]
    312e:	3304      	adds	r3, #4
    3130:	607b      	str	r3, [r7, #4]
    3132:	687b      	ldr	r3, [r7, #4]
    3134:	3b04      	subs	r3, #4
    3136:	681b      	ldr	r3, [r3, #0]
    3138:	617b      	str	r3, [r7, #20]
E:\work-201605\2012-2016 M0+1-20160318\M0+2-20160325\06-User\SD-KL-CD(V6.5)-20160501\02-Software\KL25-program\ch06-UART-20160501\KL25_UART\Debug/../07_Soft_Component/printf/printf.c:582
			vlen = printk_mknumstr(vstr, &uval, FALSE, 2);
    313a:	1c3a      	adds	r2, r7, #0
    313c:	322c      	adds	r2, #44	; 0x2c
    313e:	1c3b      	adds	r3, r7, #0
    3140:	3314      	adds	r3, #20
    3142:	1c10      	adds	r0, r2, #0
    3144:	1c19      	adds	r1, r3, #0
    3146:	2200      	movs	r2, #0
    3148:	2302      	movs	r3, #2
    314a:	f7ff fb35 	bl	27b8 <printk_mknumstr>
    314e:	1c03      	adds	r3, r0, #0
    3150:	228c      	movs	r2, #140	; 0x8c
    3152:	19d2      	adds	r2, r2, r7
    3154:	6013      	str	r3, [r2, #0]
E:\work-201605\2012-2016 M0+1-20160318\M0+2-20160325\06-User\SD-KL-CD(V6.5)-20160501\02-Software\KL25-program\ch06-UART-20160501\KL25_UART\Debug/../07_Soft_Component/printf/printf.c:583
			goto cont_u;
    3156:	e030      	b.n	31ba <printk+0x892>
E:\work-201605\2012-2016 M0+1-20160318\M0+2-20160325\06-User\SD-KL-CD(V6.5)-20160501\02-Software\KL25-program\ch06-UART-20160501\KL25_UART\Debug/../07_Soft_Component/printf/printf.c:586
		//杈烘
		case 'p':
			uval = (unsigned int) va_arg(ap, void *);
    3158:	687b      	ldr	r3, [r7, #4]
    315a:	3304      	adds	r3, #4
    315c:	607b      	str	r3, [r7, #4]
    315e:	687b      	ldr	r3, [r7, #4]
    3160:	3b04      	subs	r3, #4
    3162:	681b      	ldr	r3, [r3, #0]
    3164:	617b      	str	r3, [r7, #20]
E:\work-201605\2012-2016 M0+1-20160318\M0+2-20160325\06-User\SD-KL-CD(V6.5)-20160501\02-Software\KL25-program\ch06-UART-20160501\KL25_UART\Debug/../07_Soft_Component/printf/printf.c:587
			vlen = printk_mknumstr(vstr, &uval, FALSE, 16);
    3166:	1c3a      	adds	r2, r7, #0
    3168:	322c      	adds	r2, #44	; 0x2c
    316a:	1c3b      	adds	r3, r7, #0
    316c:	3314      	adds	r3, #20
    316e:	1c10      	adds	r0, r2, #0
    3170:	1c19      	adds	r1, r3, #0
    3172:	2200      	movs	r2, #0
    3174:	2310      	movs	r3, #16
    3176:	f7ff fb1f 	bl	27b8 <printk_mknumstr>
    317a:	1c03      	adds	r3, r0, #0
    317c:	218c      	movs	r1, #140	; 0x8c
    317e:	19c9      	adds	r1, r1, r7
    3180:	600b      	str	r3, [r1, #0]
E:\work-201605\2012-2016 M0+1-20160318\M0+2-20160325\06-User\SD-KL-CD(V6.5)-20160501\02-Software\KL25-program\ch06-UART-20160501\KL25_UART\Debug/../07_Soft_Component/printf/printf.c:588
			goto cont_u;
    3182:	e01a      	b.n	31ba <printk+0x892>
    3184:	46c0      	nop			; (mov r8, r8)
    3186:	46c0      	nop			; (mov r8, r8)
	...
E:\work-201605\2012-2016 M0+1-20160318\M0+2-20160325\06-User\SD-KL-CD(V6.5)-20160501\02-Software\KL25-program\ch06-UART-20160501\KL25_UART\Debug/../07_Soft_Component/printf/printf.c:590
		case 'u':
			uval = (unsigned int) va_arg(ap, unsigned int);
    3190:	687b      	ldr	r3, [r7, #4]
    3192:	3304      	adds	r3, #4
    3194:	607b      	str	r3, [r7, #4]
    3196:	687b      	ldr	r3, [r7, #4]
    3198:	3b04      	subs	r3, #4
    319a:	681b      	ldr	r3, [r3, #0]
    319c:	617b      	str	r3, [r7, #20]
E:\work-201605\2012-2016 M0+1-20160318\M0+2-20160325\06-User\SD-KL-CD(V6.5)-20160501\02-Software\KL25-program\ch06-UART-20160501\KL25_UART\Debug/../07_Soft_Component/printf/printf.c:591
			vlen = printk_mknumstr(vstr, &uval, FALSE, 10);
    319e:	1c3a      	adds	r2, r7, #0
    31a0:	322c      	adds	r2, #44	; 0x2c
    31a2:	1c3b      	adds	r3, r7, #0
    31a4:	3314      	adds	r3, #20
    31a6:	1c10      	adds	r0, r2, #0
    31a8:	1c19      	adds	r1, r3, #0
    31aa:	2200      	movs	r2, #0
    31ac:	230a      	movs	r3, #10
    31ae:	f7ff fb03 	bl	27b8 <printk_mknumstr>
    31b2:	1c03      	adds	r3, r0, #0
    31b4:	228c      	movs	r2, #140	; 0x8c
    31b6:	19d2      	adds	r2, r2, r7
    31b8:	6013      	str	r3, [r2, #0]
E:\work-201605\2012-2016 M0+1-20160318\M0+2-20160325\06-User\SD-KL-CD(V6.5)-20160501\02-Software\KL25-program\ch06-UART-20160501\KL25_UART\Debug/../07_Soft_Component/printf/printf.c:593

			cont_u: vstrp = &vstr[vlen];
    31ba:	1c3a      	adds	r2, r7, #0
    31bc:	322c      	adds	r2, #44	; 0x2c
    31be:	218c      	movs	r1, #140	; 0x8c
    31c0:	19c9      	adds	r1, r1, r7
    31c2:	680b      	ldr	r3, [r1, #0]
    31c4:	18d3      	adds	r3, r2, r3
    31c6:	2290      	movs	r2, #144	; 0x90
    31c8:	19d2      	adds	r2, r2, r7
    31ca:	6013      	str	r3, [r2, #0]
E:\work-201605\2012-2016 M0+1-20160318\M0+2-20160325\06-User\SD-KL-CD(V6.5)-20160501\02-Software\KL25-program\ch06-UART-20160501\KL25_UART\Debug/../07_Soft_Component/printf/printf.c:595

			if (IS_FLAG_ZERO(flags_used)) {
    31cc:	2384      	movs	r3, #132	; 0x84
    31ce:	19db      	adds	r3, r3, r7
    31d0:	681a      	ldr	r2, [r3, #0]
    31d2:	2308      	movs	r3, #8
    31d4:	4013      	ands	r3, r2
    31d6:	d011      	beq.n	31fc <printk+0x8d4>
E:\work-201605\2012-2016 M0+1-20160318\M0+2-20160325\06-User\SD-KL-CD(V6.5)-20160501\02-Software\KL25-program\ch06-UART-20160501\KL25_UART\Debug/../07_Soft_Component/printf/printf.c:596
				printk_pad_zero(vlen, field_width, &count, info);
    31d8:	218c      	movs	r1, #140	; 0x8c
    31da:	19c9      	adds	r1, r1, r7
    31dc:	6808      	ldr	r0, [r1, #0]
    31de:	2280      	movs	r2, #128	; 0x80
    31e0:	19d2      	adds	r2, r2, r7
    31e2:	6811      	ldr	r1, [r2, #0]
    31e4:	1c3a      	adds	r2, r7, #0
    31e6:	3228      	adds	r2, #40	; 0x28
    31e8:	68fb      	ldr	r3, [r7, #12]
    31ea:	f7ff fb65 	bl	28b8 <printk_pad_zero>
E:\work-201605\2012-2016 M0+1-20160318\M0+2-20160325\06-User\SD-KL-CD(V6.5)-20160501\02-Software\KL25-program\ch06-UART-20160501\KL25_UART\Debug/../07_Soft_Component/printf/printf.c:597
				vlen = field_width;
    31ee:	2180      	movs	r1, #128	; 0x80
    31f0:	19c9      	adds	r1, r1, r7
    31f2:	680b      	ldr	r3, [r1, #0]
    31f4:	228c      	movs	r2, #140	; 0x8c
    31f6:	19d2      	adds	r2, r2, r7
    31f8:	6013      	str	r3, [r2, #0]
    31fa:	e011      	b.n	3220 <printk+0x8f8>
E:\work-201605\2012-2016 M0+1-20160318\M0+2-20160325\06-User\SD-KL-CD(V6.5)-20160501\02-Software\KL25-program\ch06-UART-20160501\KL25_UART\Debug/../07_Soft_Component/printf/printf.c:599
			} else {
				if (!IS_FLAG_MINUS(flags_used)) {
    31fc:	2384      	movs	r3, #132	; 0x84
    31fe:	19db      	adds	r3, r3, r7
    3200:	681a      	ldr	r2, [r3, #0]
    3202:	2301      	movs	r3, #1
    3204:	4013      	ands	r3, r2
    3206:	d10b      	bne.n	3220 <printk+0x8f8>
E:\work-201605\2012-2016 M0+1-20160318\M0+2-20160325\06-User\SD-KL-CD(V6.5)-20160501\02-Software\KL25-program\ch06-UART-20160501\KL25_UART\Debug/../07_Soft_Component/printf/printf.c:600
					printk_pad_space(vlen, field_width, &count, info);
    3208:	218c      	movs	r1, #140	; 0x8c
    320a:	19c9      	adds	r1, r1, r7
    320c:	6808      	ldr	r0, [r1, #0]
    320e:	2280      	movs	r2, #128	; 0x80
    3210:	19d2      	adds	r2, r2, r7
    3212:	6811      	ldr	r1, [r2, #0]
    3214:	1c3a      	adds	r2, r7, #0
    3216:	3228      	adds	r2, #40	; 0x28
    3218:	68fb      	ldr	r3, [r7, #12]
    321a:	f7ff fb69 	bl	28f0 <printk_pad_space>
E:\work-201605\2012-2016 M0+1-20160318\M0+2-20160325\06-User\SD-KL-CD(V6.5)-20160501\02-Software\KL25-program\ch06-UART-20160501\KL25_UART\Debug/../07_Soft_Component/printf/printf.c:604
				}
			}

			cont_xd: while (*vstrp)
    321e:	e011      	b.n	3244 <printk+0x91c>
    3220:	e010      	b.n	3244 <printk+0x91c>
E:\work-201605\2012-2016 M0+1-20160318\M0+2-20160325\06-User\SD-KL-CD(V6.5)-20160501\02-Software\KL25-program\ch06-UART-20160501\KL25_UART\Debug/../07_Soft_Component/printf/printf.c:605
				printk_putc(*vstrp--, &count, info);
    3222:	2190      	movs	r1, #144	; 0x90
    3224:	19c9      	adds	r1, r1, r7
    3226:	680b      	ldr	r3, [r1, #0]
    3228:	1e5a      	subs	r2, r3, #1
    322a:	2190      	movs	r1, #144	; 0x90
    322c:	19c9      	adds	r1, r1, r7
    322e:	600a      	str	r2, [r1, #0]
    3230:	781b      	ldrb	r3, [r3, #0]
    3232:	b259      	sxtb	r1, r3
    3234:	1c3a      	adds	r2, r7, #0
    3236:	3228      	adds	r2, #40	; 0x28
    3238:	68fb      	ldr	r3, [r7, #12]
    323a:	1c08      	adds	r0, r1, #0
    323c:	1c11      	adds	r1, r2, #0
    323e:	1c1a      	adds	r2, r3, #0
    3240:	f7ff f8c4 	bl	23cc <printk_putc>
E:\work-201605\2012-2016 M0+1-20160318\M0+2-20160325\06-User\SD-KL-CD(V6.5)-20160501\02-Software\KL25-program\ch06-UART-20160501\KL25_UART\Debug/../07_Soft_Component/printf/printf.c:604 (discriminator 1)
				if (!IS_FLAG_MINUS(flags_used)) {
					printk_pad_space(vlen, field_width, &count, info);
				}
			}

			cont_xd: while (*vstrp)
    3244:	2290      	movs	r2, #144	; 0x90
    3246:	19d2      	adds	r2, r2, r7
    3248:	6813      	ldr	r3, [r2, #0]
    324a:	781b      	ldrb	r3, [r3, #0]
    324c:	2b00      	cmp	r3, #0
    324e:	d1e8      	bne.n	3222 <printk+0x8fa>
E:\work-201605\2012-2016 M0+1-20160318\M0+2-20160325\06-User\SD-KL-CD(V6.5)-20160501\02-Software\KL25-program\ch06-UART-20160501\KL25_UART\Debug/../07_Soft_Component/printf/printf.c:607
				printk_putc(*vstrp--, &count, info);

			if (IS_FLAG_MINUS(flags_used)) {
    3250:	2384      	movs	r3, #132	; 0x84
    3252:	19db      	adds	r3, r3, r7
    3254:	681a      	ldr	r2, [r3, #0]
    3256:	2301      	movs	r3, #1
    3258:	4013      	ands	r3, r2
    325a:	d00b      	beq.n	3274 <printk+0x94c>
E:\work-201605\2012-2016 M0+1-20160318\M0+2-20160325\06-User\SD-KL-CD(V6.5)-20160501\02-Software\KL25-program\ch06-UART-20160501\KL25_UART\Debug/../07_Soft_Component/printf/printf.c:608
				printk_pad_space(vlen, field_width, &count, info);
    325c:	218c      	movs	r1, #140	; 0x8c
    325e:	19c9      	adds	r1, r1, r7
    3260:	6808      	ldr	r0, [r1, #0]
    3262:	2280      	movs	r2, #128	; 0x80
    3264:	19d2      	adds	r2, r2, r7
    3266:	6811      	ldr	r1, [r2, #0]
    3268:	1c3a      	adds	r2, r7, #0
    326a:	3228      	adds	r2, #40	; 0x28
    326c:	68fb      	ldr	r3, [r7, #12]
    326e:	f7ff fb3f 	bl	28f0 <printk_pad_space>
E:\work-201605\2012-2016 M0+1-20160318\M0+2-20160325\06-User\SD-KL-CD(V6.5)-20160501\02-Software\KL25-program\ch06-UART-20160501\KL25_UART\Debug/../07_Soft_Component/printf/printf.c:611
			}

			break;
    3272:	e08c      	b.n	338e <printk+0xa66>
    3274:	e08b      	b.n	338e <printk+0xa66>
E:\work-201605\2012-2016 M0+1-20160318\M0+2-20160325\06-User\SD-KL-CD(V6.5)-20160501\02-Software\KL25-program\ch06-UART-20160501\KL25_UART\Debug/../07_Soft_Component/printf/printf.c:614
        //瀛绗杈
		case 'c':
			cval = (char) va_arg(ap, unsigned int);
    3276:	687b      	ldr	r3, [r7, #4]
    3278:	3304      	adds	r3, #4
    327a:	607b      	str	r3, [r7, #4]
    327c:	687b      	ldr	r3, [r7, #4]
    327e:	3b04      	subs	r3, #4
    3280:	681b      	ldr	r3, [r3, #0]
    3282:	b2db      	uxtb	r3, r3
    3284:	b25b      	sxtb	r3, r3
    3286:	65fb      	str	r3, [r7, #92]	; 0x5c
E:\work-201605\2012-2016 M0+1-20160318\M0+2-20160325\06-User\SD-KL-CD(V6.5)-20160501\02-Software\KL25-program\ch06-UART-20160501\KL25_UART\Debug/../07_Soft_Component/printf/printf.c:615
			printk_putc(cval, &count, info);
    3288:	6df9      	ldr	r1, [r7, #92]	; 0x5c
    328a:	1c3a      	adds	r2, r7, #0
    328c:	3228      	adds	r2, #40	; 0x28
    328e:	68fb      	ldr	r3, [r7, #12]
    3290:	1c08      	adds	r0, r1, #0
    3292:	1c11      	adds	r1, r2, #0
    3294:	1c1a      	adds	r2, r3, #0
    3296:	f7ff f899 	bl	23cc <printk_putc>
E:\work-201605\2012-2016 M0+1-20160318\M0+2-20160325\06-User\SD-KL-CD(V6.5)-20160501\02-Software\KL25-program\ch06-UART-20160501\KL25_UART\Debug/../07_Soft_Component/printf/printf.c:616
			break;
    329a:	e078      	b.n	338e <printk+0xa66>
E:\work-201605\2012-2016 M0+1-20160318\M0+2-20160325\06-User\SD-KL-CD(V6.5)-20160501\02-Software\KL25-program\ch06-UART-20160501\KL25_UART\Debug/../07_Soft_Component/printf/printf.c:618
		case 's':
			sval = (char *) va_arg(ap, char *);
    329c:	687b      	ldr	r3, [r7, #4]
    329e:	3304      	adds	r3, #4
    32a0:	607b      	str	r3, [r7, #4]
    32a2:	687b      	ldr	r3, [r7, #4]
    32a4:	3b04      	subs	r3, #4
    32a6:	681b      	ldr	r3, [r3, #0]
    32a8:	66bb      	str	r3, [r7, #104]	; 0x68
E:\work-201605\2012-2016 M0+1-20160318\M0+2-20160325\06-User\SD-KL-CD(V6.5)-20160501\02-Software\KL25-program\ch06-UART-20160501\KL25_UART\Debug/../07_Soft_Component/printf/printf.c:619
			if (sval) {
    32aa:	6ebb      	ldr	r3, [r7, #104]	; 0x68
    32ac:	2b00      	cmp	r3, #0
    32ae:	d058      	beq.n	3362 <printk+0xa3a>
E:\work-201605\2012-2016 M0+1-20160318\M0+2-20160325\06-User\SD-KL-CD(V6.5)-20160501\02-Software\KL25-program\ch06-UART-20160501\KL25_UART\Debug/../07_Soft_Component/printf/printf.c:620
				vlen = strlen(sval);
    32b0:	6ebb      	ldr	r3, [r7, #104]	; 0x68
    32b2:	1c18      	adds	r0, r3, #0
    32b4:	f000 fe04 	bl	3ec0 <strlen>
    32b8:	1c03      	adds	r3, r0, #0
    32ba:	218c      	movs	r1, #140	; 0x8c
    32bc:	19c9      	adds	r1, r1, r7
    32be:	600b      	str	r3, [r1, #0]
E:\work-201605\2012-2016 M0+1-20160318\M0+2-20160325\06-User\SD-KL-CD(V6.5)-20160501\02-Software\KL25-program\ch06-UART-20160501\KL25_UART\Debug/../07_Soft_Component/printf/printf.c:621
				if (!IS_FLAG_MINUS(flags_used)) {
    32c0:	2384      	movs	r3, #132	; 0x84
    32c2:	19db      	adds	r3, r3, r7
    32c4:	681a      	ldr	r2, [r3, #0]
    32c6:	2301      	movs	r3, #1
    32c8:	4013      	ands	r3, r2
    32ca:	d10a      	bne.n	32e2 <printk+0x9ba>
E:\work-201605\2012-2016 M0+1-20160318\M0+2-20160325\06-User\SD-KL-CD(V6.5)-20160501\02-Software\KL25-program\ch06-UART-20160501\KL25_UART\Debug/../07_Soft_Component/printf/printf.c:622
					printk_pad_space(vlen, field_width, &count, info);
    32cc:	218c      	movs	r1, #140	; 0x8c
    32ce:	19c9      	adds	r1, r1, r7
    32d0:	6808      	ldr	r0, [r1, #0]
    32d2:	2280      	movs	r2, #128	; 0x80
    32d4:	19d2      	adds	r2, r2, r7
    32d6:	6811      	ldr	r1, [r2, #0]
    32d8:	1c3a      	adds	r2, r7, #0
    32da:	3228      	adds	r2, #40	; 0x28
    32dc:	68fb      	ldr	r3, [r7, #12]
    32de:	f7ff fb07 	bl	28f0 <printk_pad_space>
E:\work-201605\2012-2016 M0+1-20160318\M0+2-20160325\06-User\SD-KL-CD(V6.5)-20160501\02-Software\KL25-program\ch06-UART-20160501\KL25_UART\Debug/../07_Soft_Component/printf/printf.c:624
				}
				if(precision_width!=0)
    32e2:	6f7b      	ldr	r3, [r7, #116]	; 0x74
    32e4:	2b00      	cmp	r3, #0
    32e6:	d018      	beq.n	331a <printk+0x9f2>
E:\work-201605\2012-2016 M0+1-20160318\M0+2-20160325\06-User\SD-KL-CD(V6.5)-20160501\02-Software\KL25-program\ch06-UART-20160501\KL25_UART\Debug/../07_Soft_Component/printf/printf.c:626
				{
					while (*sval)
    32e8:	e012      	b.n	3310 <printk+0x9e8>
E:\work-201605\2012-2016 M0+1-20160318\M0+2-20160325\06-User\SD-KL-CD(V6.5)-20160501\02-Software\KL25-program\ch06-UART-20160501\KL25_UART\Debug/../07_Soft_Component/printf/printf.c:628
					{
						if(precision_width>=1)
    32ea:	6f7b      	ldr	r3, [r7, #116]	; 0x74
    32ec:	2b00      	cmp	r3, #0
    32ee:	dd0f      	ble.n	3310 <printk+0x9e8>
E:\work-201605\2012-2016 M0+1-20160318\M0+2-20160325\06-User\SD-KL-CD(V6.5)-20160501\02-Software\KL25-program\ch06-UART-20160501\KL25_UART\Debug/../07_Soft_Component/printf/printf.c:630
						{
							precision_width--;
    32f0:	6f7b      	ldr	r3, [r7, #116]	; 0x74
    32f2:	3b01      	subs	r3, #1
    32f4:	677b      	str	r3, [r7, #116]	; 0x74
E:\work-201605\2012-2016 M0+1-20160318\M0+2-20160325\06-User\SD-KL-CD(V6.5)-20160501\02-Software\KL25-program\ch06-UART-20160501\KL25_UART\Debug/../07_Soft_Component/printf/printf.c:631
							printk_putc(*sval++, &count, info);
    32f6:	6ebb      	ldr	r3, [r7, #104]	; 0x68
    32f8:	1c5a      	adds	r2, r3, #1
    32fa:	66ba      	str	r2, [r7, #104]	; 0x68
    32fc:	781b      	ldrb	r3, [r3, #0]
    32fe:	b259      	sxtb	r1, r3
    3300:	1c3a      	adds	r2, r7, #0
    3302:	3228      	adds	r2, #40	; 0x28
    3304:	68fb      	ldr	r3, [r7, #12]
    3306:	1c08      	adds	r0, r1, #0
    3308:	1c11      	adds	r1, r2, #0
    330a:	1c1a      	adds	r2, r3, #0
    330c:	f7ff f85e 	bl	23cc <printk_putc>
E:\work-201605\2012-2016 M0+1-20160318\M0+2-20160325\06-User\SD-KL-CD(V6.5)-20160501\02-Software\KL25-program\ch06-UART-20160501\KL25_UART\Debug/../07_Soft_Component/printf/printf.c:626 (discriminator 1)
				if (!IS_FLAG_MINUS(flags_used)) {
					printk_pad_space(vlen, field_width, &count, info);
				}
				if(precision_width!=0)
				{
					while (*sval)
    3310:	6ebb      	ldr	r3, [r7, #104]	; 0x68
    3312:	781b      	ldrb	r3, [r3, #0]
    3314:	2b00      	cmp	r3, #0
    3316:	d1e8      	bne.n	32ea <printk+0x9c2>
    3318:	e011      	b.n	333e <printk+0xa16>
E:\work-201605\2012-2016 M0+1-20160318\M0+2-20160325\06-User\SD-KL-CD(V6.5)-20160501\02-Software\KL25-program\ch06-UART-20160501\KL25_UART\Debug/../07_Soft_Component/printf/printf.c:637
						}
					}
				}
				else    //precision_width=0
				{
					while (*sval)
    331a:	e00c      	b.n	3336 <printk+0xa0e>
E:\work-201605\2012-2016 M0+1-20160318\M0+2-20160325\06-User\SD-KL-CD(V6.5)-20160501\02-Software\KL25-program\ch06-UART-20160501\KL25_UART\Debug/../07_Soft_Component/printf/printf.c:638
					   printk_putc(*sval++, &count, info);
    331c:	6ebb      	ldr	r3, [r7, #104]	; 0x68
    331e:	1c5a      	adds	r2, r3, #1
    3320:	66ba      	str	r2, [r7, #104]	; 0x68
    3322:	781b      	ldrb	r3, [r3, #0]
    3324:	b259      	sxtb	r1, r3
    3326:	1c3a      	adds	r2, r7, #0
    3328:	3228      	adds	r2, #40	; 0x28
    332a:	68fb      	ldr	r3, [r7, #12]
    332c:	1c08      	adds	r0, r1, #0
    332e:	1c11      	adds	r1, r2, #0
    3330:	1c1a      	adds	r2, r3, #0
    3332:	f7ff f84b 	bl	23cc <printk_putc>
E:\work-201605\2012-2016 M0+1-20160318\M0+2-20160325\06-User\SD-KL-CD(V6.5)-20160501\02-Software\KL25-program\ch06-UART-20160501\KL25_UART\Debug/../07_Soft_Component/printf/printf.c:637 (discriminator 1)
						}
					}
				}
				else    //precision_width=0
				{
					while (*sval)
    3336:	6ebb      	ldr	r3, [r7, #104]	; 0x68
    3338:	781b      	ldrb	r3, [r3, #0]
    333a:	2b00      	cmp	r3, #0
    333c:	d1ee      	bne.n	331c <printk+0x9f4>
E:\work-201605\2012-2016 M0+1-20160318\M0+2-20160325\06-User\SD-KL-CD(V6.5)-20160501\02-Software\KL25-program\ch06-UART-20160501\KL25_UART\Debug/../07_Soft_Component/printf/printf.c:640
					   printk_putc(*sval++, &count, info);
				}
				if (IS_FLAG_MINUS(flags_used)) {
    333e:	2384      	movs	r3, #132	; 0x84
    3340:	19db      	adds	r3, r3, r7
    3342:	681a      	ldr	r2, [r3, #0]
    3344:	2301      	movs	r3, #1
    3346:	4013      	ands	r3, r2
    3348:	d00b      	beq.n	3362 <printk+0xa3a>
E:\work-201605\2012-2016 M0+1-20160318\M0+2-20160325\06-User\SD-KL-CD(V6.5)-20160501\02-Software\KL25-program\ch06-UART-20160501\KL25_UART\Debug/../07_Soft_Component/printf/printf.c:641
					printk_pad_space(vlen, field_width, &count, info);
    334a:	218c      	movs	r1, #140	; 0x8c
    334c:	19c9      	adds	r1, r1, r7
    334e:	6808      	ldr	r0, [r1, #0]
    3350:	2280      	movs	r2, #128	; 0x80
    3352:	19d2      	adds	r2, r2, r7
    3354:	6811      	ldr	r1, [r2, #0]
    3356:	1c3a      	adds	r2, r7, #0
    3358:	3228      	adds	r2, #40	; 0x28
    335a:	68fb      	ldr	r3, [r7, #12]
    335c:	f7ff fac8 	bl	28f0 <printk_pad_space>
E:\work-201605\2012-2016 M0+1-20160318\M0+2-20160325\06-User\SD-KL-CD(V6.5)-20160501\02-Software\KL25-program\ch06-UART-20160501\KL25_UART\Debug/../07_Soft_Component/printf/printf.c:644
				}
			}
			break;
    3360:	e015      	b.n	338e <printk+0xa66>
    3362:	e014      	b.n	338e <printk+0xa66>
E:\work-201605\2012-2016 M0+1-20160318\M0+2-20160325\06-User\SD-KL-CD(V6.5)-20160501\02-Software\KL25-program\ch06-UART-20160501\KL25_UART\Debug/../07_Soft_Component/printf/printf.c:646
		case 'n':
			ivalp = (int *) va_arg(ap, int *);
    3364:	687b      	ldr	r3, [r7, #4]
    3366:	3304      	adds	r3, #4
    3368:	607b      	str	r3, [r7, #4]
    336a:	687b      	ldr	r3, [r7, #4]
    336c:	3b04      	subs	r3, #4
    336e:	681b      	ldr	r3, [r3, #0]
    3370:	65bb      	str	r3, [r7, #88]	; 0x58
E:\work-201605\2012-2016 M0+1-20160318\M0+2-20160325\06-User\SD-KL-CD(V6.5)-20160501\02-Software\KL25-program\ch06-UART-20160501\KL25_UART\Debug/../07_Soft_Component/printf/printf.c:647
			*ivalp = count;
    3372:	6aba      	ldr	r2, [r7, #40]	; 0x28
    3374:	6dbb      	ldr	r3, [r7, #88]	; 0x58
    3376:	601a      	str	r2, [r3, #0]
E:\work-201605\2012-2016 M0+1-20160318\M0+2-20160325\06-User\SD-KL-CD(V6.5)-20160501\02-Software\KL25-program\ch06-UART-20160501\KL25_UART\Debug/../07_Soft_Component/printf/printf.c:648
			break;
    3378:	e009      	b.n	338e <printk+0xa66>
E:\work-201605\2012-2016 M0+1-20160318\M0+2-20160325\06-User\SD-KL-CD(V6.5)-20160501\02-Software\KL25-program\ch06-UART-20160501\KL25_UART\Debug/../07_Soft_Component/printf/printf.c:651

		default:
			printk_putc(c, &count, info);
    337a:	6e79      	ldr	r1, [r7, #100]	; 0x64
    337c:	1c3a      	adds	r2, r7, #0
    337e:	3228      	adds	r2, #40	; 0x28
    3380:	68fb      	ldr	r3, [r7, #12]
    3382:	1c08      	adds	r0, r1, #0
    3384:	1c11      	adds	r1, r2, #0
    3386:	1c1a      	adds	r2, r3, #0
    3388:	f7ff f820 	bl	23cc <printk_putc>
E:\work-201605\2012-2016 M0+1-20160318\M0+2-20160325\06-User\SD-KL-CD(V6.5)-20160501\02-Software\KL25-program\ch06-UART-20160501\KL25_UART\Debug/../07_Soft_Component/printf/printf.c:652
			break;
    338c:	46c0      	nop			; (mov r8, r8)
E:\work-201605\2012-2016 M0+1-20160318\M0+2-20160325\06-User\SD-KL-CD(V6.5)-20160501\02-Software\KL25-program\ch06-UART-20160501\KL25_UART\Debug/../07_Soft_Component/printf/printf.c:253

	count = 0;
	length_modifier=0;
	precision_used=TRUE;
	//浠煎瀛绗涓茬涓涓瀛绗寮濮煎杈烘版
	for (p = (char *) fmt; (c = *p) != 0; p++)
    338e:	2194      	movs	r1, #148	; 0x94
    3390:	19c9      	adds	r1, r1, r7
    3392:	680b      	ldr	r3, [r1, #0]
    3394:	3301      	adds	r3, #1
    3396:	2294      	movs	r2, #148	; 0x94
    3398:	19d2      	adds	r2, r2, r7
    339a:	6013      	str	r3, [r2, #0]
E:\work-201605\2012-2016 M0+1-20160318\M0+2-20160325\06-User\SD-KL-CD(V6.5)-20160501\02-Software\KL25-program\ch06-UART-20160501\KL25_UART\Debug/../07_Soft_Component/printf/printf.c:253 (discriminator 1)
    339c:	2194      	movs	r1, #148	; 0x94
    339e:	19c9      	adds	r1, r1, r7
    33a0:	680b      	ldr	r3, [r1, #0]
    33a2:	781b      	ldrb	r3, [r3, #0]
    33a4:	b25b      	sxtb	r3, r3
    33a6:	667b      	str	r3, [r7, #100]	; 0x64
    33a8:	6e7b      	ldr	r3, [r7, #100]	; 0x64
    33aa:	2b00      	cmp	r3, #0
    33ac:	d001      	beq.n	33b2 <printk+0xa8a>
    33ae:	f7ff fae6 	bl	297e <printk+0x56>
E:\work-201605\2012-2016 M0+1-20160318\M0+2-20160325\06-User\SD-KL-CD(V6.5)-20160501\02-Software\KL25-program\ch06-UART-20160501\KL25_UART\Debug/../07_Soft_Component/printf/printf.c:655
		default:
			printk_putc(c, &count, info);
			break;
		}
	}
	return count;
    33b2:	6abb      	ldr	r3, [r7, #40]	; 0x28
E:\work-201605\2012-2016 M0+1-20160318\M0+2-20160325\06-User\SD-KL-CD(V6.5)-20160501\02-Software\KL25-program\ch06-UART-20160501\KL25_UART\Debug/../07_Soft_Component/printf/printf.c:656
}
    33b4:	1c18      	adds	r0, r3, #0
    33b6:	46bd      	mov	sp, r7
    33b8:	b027      	add	sp, #156	; 0x9c
    33ba:	bd90      	pop	{r4, r7, pc}
$t():
    33bc:	46c0      	nop			; (mov r8, r8)
    33be:	46c0      	nop			; (mov r8, r8)

000033c0 <myprintf>:
myprintf():
E:\work-201605\2012-2016 M0+1-20160318\M0+2-20160325\06-User\SD-KL-CD(V6.5)-20160501\02-Software\KL25-program\ch06-UART-20160501\KL25_UART\Debug/../07_Soft_Component/printf/printf.c:665
//拌存锛const char *:板板绗涓诧瀵硅ョ瀛绗涓茶琛瑙ｆ骞舵煎杈
//       渚濡锛 printf("c=%c\n",c); 灏cchar杩琛杈
//芥拌锛瀛绗涓查垮害
//======================================================================
int myprintf(const char *fmt, ...)
{
    33c0:	b40f      	push	{r0, r1, r2, r3}
    33c2:	b580      	push	{r7, lr}
    33c4:	b086      	sub	sp, #24
    33c6:	af00      	add	r7, sp, #0
E:\work-201605\2012-2016 M0+1-20160318\M0+2-20160325\06-User\SD-KL-CD(V6.5)-20160501\02-Software\KL25-program\ch06-UART-20160501\KL25_UART\Debug/../07_Soft_Component/printf/printf.c:669
	va_list ap;
	int rvalue;
	PRINTK_INFO info;
	info.dest = DEST_CONSOLE;  //瀹瀹涔涓1
    33c8:	1d3b      	adds	r3, r7, #4
    33ca:	2201      	movs	r2, #1
    33cc:	601a      	str	r2, [r3, #0]
E:\work-201605\2012-2016 M0+1-20160318\M0+2-20160325\06-User\SD-KL-CD(V6.5)-20160501\02-Software\KL25-program\ch06-UART-20160501\KL25_UART\Debug/../07_Soft_Component/printf/printf.c:670
	info.func = &out_char;     //璋ㄧ涓插ｈ哄芥
    33ce:	1d3b      	adds	r3, r7, #4
    33d0:	4a0c      	ldr	r2, [pc, #48]	; (3404 <myprintf+0x44>)
    33d2:	605a      	str	r2, [r3, #4]
E:\work-201605\2012-2016 M0+1-20160318\M0+2-20160325\06-User\SD-KL-CD(V6.5)-20160501\02-Software\KL25-program\ch06-UART-20160501\KL25_UART\Debug/../07_Soft_Component/printf/printf.c:671
	va_start(ap, fmt);  //瀵ap 杩琛濮锛璁╁拌〃㈢绗涓涓
    33d4:	1c3b      	adds	r3, r7, #0
    33d6:	3324      	adds	r3, #36	; 0x24
    33d8:	617b      	str	r3, [r7, #20]
E:\work-201605\2012-2016 M0+1-20160318\M0+2-20160325\06-User\SD-KL-CD(V6.5)-20160501\02-Software\KL25-program\ch06-UART-20160501\KL25_UART\Debug/../07_Soft_Component/printf/printf.c:672
	rvalue = printk(&info, fmt, ap);
    33da:	6a3a      	ldr	r2, [r7, #32]
    33dc:	1d39      	adds	r1, r7, #4
    33de:	697b      	ldr	r3, [r7, #20]
    33e0:	1c08      	adds	r0, r1, #0
    33e2:	1c11      	adds	r1, r2, #0
    33e4:	1c1a      	adds	r2, r3, #0
    33e6:	f7ff fa9f 	bl	2928 <printk>
    33ea:	1c03      	adds	r3, r0, #0
    33ec:	613b      	str	r3, [r7, #16]
E:\work-201605\2012-2016 M0+1-20160318\M0+2-20160325\06-User\SD-KL-CD(V6.5)-20160501\02-Software\KL25-program\ch06-UART-20160501\KL25_UART\Debug/../07_Soft_Component/printf/printf.c:674

	va_end(ap);
    33ee:	2300      	movs	r3, #0
    33f0:	617b      	str	r3, [r7, #20]
E:\work-201605\2012-2016 M0+1-20160318\M0+2-20160325\06-User\SD-KL-CD(V6.5)-20160501\02-Software\KL25-program\ch06-UART-20160501\KL25_UART\Debug/../07_Soft_Component/printf/printf.c:676

	return rvalue;
    33f2:	693b      	ldr	r3, [r7, #16]
E:\work-201605\2012-2016 M0+1-20160318\M0+2-20160325\06-User\SD-KL-CD(V6.5)-20160501\02-Software\KL25-program\ch06-UART-20160501\KL25_UART\Debug/../07_Soft_Component/printf/printf.c:677
}
    33f4:	1c18      	adds	r0, r3, #0
    33f6:	46bd      	mov	sp, r7
    33f8:	b006      	add	sp, #24
    33fa:	bc80      	pop	{r7}
    33fc:	bc08      	pop	{r3}
    33fe:	b004      	add	sp, #16
    3400:	4718      	bx	r3
    3402:	46c0      	nop			; (mov r8, r8)
    3404:	000023ad 	.word	0x000023ad

00003408 <light_init>:
light_init():
E:\work-201605\2012-2016 M0+1-20160318\M0+2-20160325\06-User\SD-KL-CD(V6.5)-20160501\02-Software\KL25-program\ch06-UART-20160501\KL25_UART\Debug/../06_App_Component/light/light.c:16
//       state：设定小灯状态。由light.h中宏定义。
//函数返回：无
//功能概要：指示灯驱动初始化。
//=====================================================================
void light_init(uint_16 port_pin, uint_8 state)
{
    3408:	b580      	push	{r7, lr}
    340a:	b082      	sub	sp, #8
    340c:	af00      	add	r7, sp, #0
    340e:	1c0a      	adds	r2, r1, #0
    3410:	1dbb      	adds	r3, r7, #6
    3412:	1c01      	adds	r1, r0, #0
    3414:	8019      	strh	r1, [r3, #0]
    3416:	1d7b      	adds	r3, r7, #5
    3418:	701a      	strb	r2, [r3, #0]
E:\work-201605\2012-2016 M0+1-20160318\M0+2-20160325\06-User\SD-KL-CD(V6.5)-20160501\02-Software\KL25-program\ch06-UART-20160501\KL25_UART\Debug/../06_App_Component/light/light.c:17
    gpio_init(port_pin, GPIO_OUTPUT, state);
    341a:	1dbb      	adds	r3, r7, #6
    341c:	881a      	ldrh	r2, [r3, #0]
    341e:	1d7b      	adds	r3, r7, #5
    3420:	781b      	ldrb	r3, [r3, #0]
    3422:	1c10      	adds	r0, r2, #0
    3424:	2101      	movs	r1, #1
    3426:	1c1a      	adds	r2, r3, #0
    3428:	f000 fb34 	bl	3a94 <gpio_init>
E:\work-201605\2012-2016 M0+1-20160318\M0+2-20160325\06-User\SD-KL-CD(V6.5)-20160501\02-Software\KL25-program\ch06-UART-20160501\KL25_UART\Debug/../06_App_Component/light/light.c:18
}
    342c:	46bd      	mov	sp, r7
    342e:	b002      	add	sp, #8
    3430:	bd80      	pop	{r7, pc}
    3432:	46c0      	nop			; (mov r8, r8)

00003434 <light_change>:
light_change():
E:\work-201605\2012-2016 M0+1-20160318\M0+2-20160325\06-User\SD-KL-CD(V6.5)-20160501\02-Software\KL25-program\ch06-UART-20160501\KL25_UART\Debug/../06_App_Component/light/light.c:39
//函数参数：port_pin：(端口号)|(引脚号)（如：(PTB_NUM)|(9) 表示为B口9号脚）
//函数返回：无
//功能概要：切换指示灯亮暗。
//=====================================================================
void light_change(uint_16 port_pin)
{
    3434:	b580      	push	{r7, lr}
    3436:	b082      	sub	sp, #8
    3438:	af00      	add	r7, sp, #0
    343a:	1c02      	adds	r2, r0, #0
    343c:	1dbb      	adds	r3, r7, #6
    343e:	801a      	strh	r2, [r3, #0]
E:\work-201605\2012-2016 M0+1-20160318\M0+2-20160325\06-User\SD-KL-CD(V6.5)-20160501\02-Software\KL25-program\ch06-UART-20160501\KL25_UART\Debug/../06_App_Component/light/light.c:40
    gpio_reverse(port_pin);
    3440:	1dbb      	adds	r3, r7, #6
    3442:	881b      	ldrh	r3, [r3, #0]
    3444:	1c18      	adds	r0, r3, #0
    3446:	f000 fbd9 	bl	3bfc <gpio_reverse>
E:\work-201605\2012-2016 M0+1-20160318\M0+2-20160325\06-User\SD-KL-CD(V6.5)-20160501\02-Software\KL25-program\ch06-UART-20160501\KL25_UART\Debug/../06_App_Component/light/light.c:41
}
    344a:	46bd      	mov	sp, r7
    344c:	b002      	add	sp, #8
    344e:	bd80      	pop	{r7, pc}

00003450 <NVIC_EnableIRQ>:
NVIC_EnableIRQ():
E:/work-201605/2012-2016 M0+1-20160318/M0+2-20160325/06-User/SD-KL-CD(V6.5)-20160501/02-Software/KL25-program/ch06-UART-20160501/KL25_UART/02_CPU/core_cm0plus.h:684
    The function enables a device-specific interrupt in the NVIC interrupt controller.

    \param [in]      IRQn  External interrupt number. Value cannot be negative.
 */
__STATIC_INLINE void NVIC_EnableIRQ(IRQn_Type IRQn)
{
    3450:	b580      	push	{r7, lr}
    3452:	b082      	sub	sp, #8
    3454:	af00      	add	r7, sp, #0
    3456:	1c02      	adds	r2, r0, #0
    3458:	1dfb      	adds	r3, r7, #7
    345a:	701a      	strb	r2, [r3, #0]
E:/work-201605/2012-2016 M0+1-20160318/M0+2-20160325/06-User/SD-KL-CD(V6.5)-20160501/02-Software/KL25-program/ch06-UART-20160501/KL25_UART/02_CPU/core_cm0plus.h:685
  NVIC->ISER[0] = (uint32_t)(1UL << (((uint32_t)(int32_t)IRQn) & 0x1FUL));
    345c:	4b06      	ldr	r3, [pc, #24]	; (3478 <NVIC_EnableIRQ+0x28>)
    345e:	1dfa      	adds	r2, r7, #7
    3460:	7812      	ldrb	r2, [r2, #0]
    3462:	1c11      	adds	r1, r2, #0
    3464:	221f      	movs	r2, #31
    3466:	400a      	ands	r2, r1
    3468:	2101      	movs	r1, #1
    346a:	1c08      	adds	r0, r1, #0
    346c:	4090      	lsls	r0, r2
    346e:	1c02      	adds	r2, r0, #0
    3470:	601a      	str	r2, [r3, #0]
E:/work-201605/2012-2016 M0+1-20160318/M0+2-20160325/06-User/SD-KL-CD(V6.5)-20160501/02-Software/KL25-program/ch06-UART-20160501/KL25_UART/02_CPU/core_cm0plus.h:686
}
    3472:	46bd      	mov	sp, r7
    3474:	b002      	add	sp, #8
    3476:	bd80      	pop	{r7, pc}
    3478:	e000e100 	.word	0xe000e100

0000347c <uart_init>:
uart_init():
E:\work-201605\2012-2016 M0+1-20160318\M0+2-20160325\06-User\SD-KL-CD(V6.5)-20160501\02-Software\KL25-program\ch06-UART-20160501\KL25_UART\Debug/../05_Driver/uart/uart.c:25
//参数说明：uartNo:串口号：UART_0、UART_1、UART_2 
//          baud:波特率：300、600、1200、2400、4800、9600、19200、115200...
//函数返回：无
//======================================================================
void uart_init(uint_8 uartNo, uint_32 baud_rate)
{
    347c:	b580      	push	{r7, lr}
    347e:	b086      	sub	sp, #24
    3480:	af00      	add	r7, sp, #0
    3482:	1c02      	adds	r2, r0, #0
    3484:	6039      	str	r1, [r7, #0]
    3486:	1dfb      	adds	r3, r7, #7
    3488:	701a      	strb	r2, [r3, #0]
E:\work-201605\2012-2016 M0+1-20160318\M0+2-20160325\06-User\SD-KL-CD(V6.5)-20160501\02-Software\KL25-program\ch06-UART-20160501\KL25_UART\Debug/../05_Driver/uart/uart.c:29
    //局部变量声明
    uint_16 sbr;
    uint_8 temp;
    UART0_MemMapPtr uartch_0=UART0_BASE_PTR;//uartch_0为UART0_MemMapPtr类型指针
    348a:	4b9b      	ldr	r3, [pc, #620]	; (36f8 <uart_init+0x27c>)
    348c:	617b      	str	r3, [r7, #20]
E:\work-201605\2012-2016 M0+1-20160318\M0+2-20160325\06-User\SD-KL-CD(V6.5)-20160501\02-Software\KL25-program\ch06-UART-20160501\KL25_UART\Debug/../05_Driver/uart/uart.c:33
    UART_MemMapPtr uartch_1_2;    //uartch_1_2为UART_MemMapPtr类型指针

    //判断传入串口号参数是否有误，有误直接退出
    if(!uart_is_uartNo(uartNo))
    348e:	1dfb      	adds	r3, r7, #7
    3490:	781b      	ldrb	r3, [r3, #0]
    3492:	1c18      	adds	r0, r3, #0
    3494:	f000 faec 	bl	3a70 <uart_is_uartNo>
    3498:	1c03      	adds	r3, r0, #0
    349a:	2b00      	cmp	r3, #0
    349c:	d100      	bne.n	34a0 <uart_init+0x24>
E:\work-201605\2012-2016 M0+1-20160318\M0+2-20160325\06-User\SD-KL-CD(V6.5)-20160501\02-Software\KL25-program\ch06-UART-20160501\KL25_UART\Debug/../05_Driver/uart/uart.c:35
    {
        return;
    349e:	e128      	b.n	36f2 <uart_init+0x276>
E:\work-201605\2012-2016 M0+1-20160318\M0+2-20160325\06-User\SD-KL-CD(V6.5)-20160501\02-Software\KL25-program\ch06-UART-20160501\KL25_UART\Debug/../05_Driver/uart/uart.c:39
    }

    //根据带入参数uartNo，给局部变量uartch_0或uartch_1_2赋值
    if(uartNo==0)
    34a0:	1dfb      	adds	r3, r7, #7
    34a2:	781b      	ldrb	r3, [r3, #0]
    34a4:	2b00      	cmp	r3, #0
    34a6:	d000      	beq.n	34aa <uart_init+0x2e>
    34a8:	e098      	b.n	35dc <uart_init+0x160>
E:\work-201605\2012-2016 M0+1-20160318\M0+2-20160325\06-User\SD-KL-CD(V6.5)-20160501\02-Software\KL25-program\ch06-UART-20160501\KL25_UART\Debug/../05_Driver/uart/uart.c:42
    {
        //UART0选择MCGFLLCLK_khz=48000Khz时钟源
        SIM_SOPT2 |= SIM_SOPT2_UART0SRC(0x1);
    34aa:	4a94      	ldr	r2, [pc, #592]	; (36fc <uart_init+0x280>)
    34ac:	4993      	ldr	r1, [pc, #588]	; (36fc <uart_init+0x280>)
    34ae:	4b94      	ldr	r3, [pc, #592]	; (3700 <uart_init+0x284>)
    34b0:	58cb      	ldr	r3, [r1, r3]
    34b2:	2180      	movs	r1, #128	; 0x80
    34b4:	04c9      	lsls	r1, r1, #19
    34b6:	4319      	orrs	r1, r3
    34b8:	4b91      	ldr	r3, [pc, #580]	; (3700 <uart_init+0x284>)
    34ba:	50d1      	str	r1, [r2, r3]
E:\work-201605\2012-2016 M0+1-20160318\M0+2-20160325\06-User\SD-KL-CD(V6.5)-20160501\02-Software\KL25-program\ch06-UART-20160501\KL25_UART\Debug/../05_Driver/uart/uart.c:43
        SIM_SOPT2 |= SIM_SOPT2_PLLFLLSEL_MASK;
    34bc:	4a8f      	ldr	r2, [pc, #572]	; (36fc <uart_init+0x280>)
    34be:	498f      	ldr	r1, [pc, #572]	; (36fc <uart_init+0x280>)
    34c0:	4b8f      	ldr	r3, [pc, #572]	; (3700 <uart_init+0x284>)
    34c2:	58cb      	ldr	r3, [r1, r3]
    34c4:	2180      	movs	r1, #128	; 0x80
    34c6:	0249      	lsls	r1, r1, #9
    34c8:	4319      	orrs	r1, r3
    34ca:	4b8d      	ldr	r3, [pc, #564]	; (3700 <uart_init+0x284>)
    34cc:	50d1      	str	r1, [r2, r3]
E:\work-201605\2012-2016 M0+1-20160318\M0+2-20160325\06-User\SD-KL-CD(V6.5)-20160501\02-Software\KL25-program\ch06-UART-20160501\KL25_UART\Debug/../05_Driver/uart/uart.c:57
        case 1:
            PORTA_PCR2 |= PORT_PCR_MUX(0x2);     //使能UART0_TXD
            PORTA_PCR1 |= PORT_PCR_MUX(0x2);     //使能UART0_RXD
            break;
        case 2:
            PORTA_PCR14 |= PORT_PCR_MUX(0x3);    //使能UART0_TXD
    34ce:	4b8d      	ldr	r3, [pc, #564]	; (3704 <uart_init+0x288>)
    34d0:	4a8c      	ldr	r2, [pc, #560]	; (3704 <uart_init+0x288>)
    34d2:	6b92      	ldr	r2, [r2, #56]	; 0x38
    34d4:	21c0      	movs	r1, #192	; 0xc0
    34d6:	0089      	lsls	r1, r1, #2
    34d8:	430a      	orrs	r2, r1
    34da:	639a      	str	r2, [r3, #56]	; 0x38
E:\work-201605\2012-2016 M0+1-20160318\M0+2-20160325\06-User\SD-KL-CD(V6.5)-20160501\02-Software\KL25-program\ch06-UART-20160501\KL25_UART\Debug/../05_Driver/uart/uart.c:58
            PORTA_PCR15 |= PORT_PCR_MUX(0x3);    //使能UART0_RXD
    34dc:	4b89      	ldr	r3, [pc, #548]	; (3704 <uart_init+0x288>)
    34de:	4a89      	ldr	r2, [pc, #548]	; (3704 <uart_init+0x288>)
    34e0:	6bd2      	ldr	r2, [r2, #60]	; 0x3c
    34e2:	21c0      	movs	r1, #192	; 0xc0
    34e4:	0089      	lsls	r1, r1, #2
    34e6:	430a      	orrs	r2, r1
    34e8:	63da      	str	r2, [r3, #60]	; 0x3c
E:\work-201605\2012-2016 M0+1-20160318\M0+2-20160325\06-User\SD-KL-CD(V6.5)-20160501\02-Software\KL25-program\ch06-UART-20160501\KL25_UART\Debug/../05_Driver/uart/uart.c:59
            break;
    34ea:	46c0      	nop			; (mov r8, r8)
E:\work-201605\2012-2016 M0+1-20160318\M0+2-20160325\06-User\SD-KL-CD(V6.5)-20160501\02-Software\KL25-program\ch06-UART-20160501\KL25_UART\Debug/../05_Driver/uart/uart.c:71
            PORTD_PCR7 |= PORT_PCR_MUX(0x3);     //使能UART0_TXD
            PORTD_PCR6 |= PORT_PCR_MUX(0x3);     //使能UART0_RXD
            break;
        }
#endif
        SIM_SCGC4 |= SIM_SCGC4_UART0_MASK;    //启动串口0时钟
    34ec:	4a83      	ldr	r2, [pc, #524]	; (36fc <uart_init+0x280>)
    34ee:	4983      	ldr	r1, [pc, #524]	; (36fc <uart_init+0x280>)
    34f0:	4b85      	ldr	r3, [pc, #532]	; (3708 <uart_init+0x28c>)
    34f2:	58cb      	ldr	r3, [r1, r3]
    34f4:	2180      	movs	r1, #128	; 0x80
    34f6:	00c9      	lsls	r1, r1, #3
    34f8:	4319      	orrs	r1, r3
    34fa:	4b83      	ldr	r3, [pc, #524]	; (3708 <uart_init+0x28c>)
    34fc:	50d1      	str	r1, [r2, r3]
E:\work-201605\2012-2016 M0+1-20160318\M0+2-20160325\06-User\SD-KL-CD(V6.5)-20160501\02-Software\KL25-program\ch06-UART-20160501\KL25_UART\Debug/../05_Driver/uart/uart.c:74

        //暂时关闭串口0发送与接收功能
        UART0_C2_REG(uartch_0) &= ~(UART0_C2_TE_MASK | UART0_C2_RE_MASK);
    34fe:	697b      	ldr	r3, [r7, #20]
    3500:	78db      	ldrb	r3, [r3, #3]
    3502:	b2db      	uxtb	r3, r3
    3504:	220c      	movs	r2, #12
    3506:	4393      	bics	r3, r2
    3508:	b2da      	uxtb	r2, r3
    350a:	697b      	ldr	r3, [r7, #20]
    350c:	70da      	strb	r2, [r3, #3]
E:\work-201605\2012-2016 M0+1-20160318\M0+2-20160325\06-User\SD-KL-CD(V6.5)-20160501\02-Software\KL25-program\ch06-UART-20160501\KL25_UART\Debug/../05_Driver/uart/uart.c:77

        //配置串口工作模式:8位无校验模式
        sbr = (uint_16)((SYSTEM_CLK_KHZ*1000)/(baud_rate * 16));
    350e:	4b7f      	ldr	r3, [pc, #508]	; (370c <uart_init+0x290>)
    3510:	681b      	ldr	r3, [r3, #0]
    3512:	1c18      	adds	r0, r3, #0
    3514:	23fa      	movs	r3, #250	; 0xfa
    3516:	0099      	lsls	r1, r3, #2
    3518:	f7fd f998 	bl	84c <__aeabi_uidiv>
    351c:	1c03      	adds	r3, r0, #0
    351e:	22fa      	movs	r2, #250	; 0xfa
    3520:	0092      	lsls	r2, r2, #2
    3522:	435a      	muls	r2, r3
    3524:	683b      	ldr	r3, [r7, #0]
    3526:	011b      	lsls	r3, r3, #4
    3528:	1c10      	adds	r0, r2, #0
    352a:	1c19      	adds	r1, r3, #0
    352c:	f7fd f98e 	bl	84c <__aeabi_uidiv>
    3530:	1c03      	adds	r3, r0, #0
    3532:	1c1a      	adds	r2, r3, #0
    3534:	1c3b      	adds	r3, r7, #0
    3536:	3312      	adds	r3, #18
    3538:	801a      	strh	r2, [r3, #0]
E:\work-201605\2012-2016 M0+1-20160318\M0+2-20160325\06-User\SD-KL-CD(V6.5)-20160501\02-Software\KL25-program\ch06-UART-20160501\KL25_UART\Debug/../05_Driver/uart/uart.c:78
        temp = UART0_BDH_REG(uartch_0) & ~(UART0_BDH_SBR(0x1F));
    353a:	697b      	ldr	r3, [r7, #20]
    353c:	781b      	ldrb	r3, [r3, #0]
    353e:	b2da      	uxtb	r2, r3
    3540:	1c3b      	adds	r3, r7, #0
    3542:	3311      	adds	r3, #17
    3544:	211f      	movs	r1, #31
    3546:	438a      	bics	r2, r1
    3548:	701a      	strb	r2, [r3, #0]
E:\work-201605\2012-2016 M0+1-20160318\M0+2-20160325\06-User\SD-KL-CD(V6.5)-20160501\02-Software\KL25-program\ch06-UART-20160501\KL25_UART\Debug/../05_Driver/uart/uart.c:79
        UART0_BDH_REG(uartch_0) = temp | UART0_BDH_SBR(((sbr & 0x1F00) >> 8));
    354a:	1c3b      	adds	r3, r7, #0
    354c:	3312      	adds	r3, #18
    354e:	881a      	ldrh	r2, [r3, #0]
    3550:	23f8      	movs	r3, #248	; 0xf8
    3552:	015b      	lsls	r3, r3, #5
    3554:	4013      	ands	r3, r2
    3556:	121b      	asrs	r3, r3, #8
    3558:	b2da      	uxtb	r2, r3
    355a:	231f      	movs	r3, #31
    355c:	4013      	ands	r3, r2
    355e:	b2da      	uxtb	r2, r3
    3560:	1c3b      	adds	r3, r7, #0
    3562:	3311      	adds	r3, #17
    3564:	781b      	ldrb	r3, [r3, #0]
    3566:	4313      	orrs	r3, r2
    3568:	b2da      	uxtb	r2, r3
    356a:	697b      	ldr	r3, [r7, #20]
    356c:	701a      	strb	r2, [r3, #0]
E:\work-201605\2012-2016 M0+1-20160318\M0+2-20160325\06-User\SD-KL-CD(V6.5)-20160501\02-Software\KL25-program\ch06-UART-20160501\KL25_UART\Debug/../05_Driver/uart/uart.c:80
        UART0_BDL_REG(uartch_0) = (uint_8)(sbr & UART0_BDL_SBR_MASK);
    356e:	1c3b      	adds	r3, r7, #0
    3570:	3312      	adds	r3, #18
    3572:	881b      	ldrh	r3, [r3, #0]
    3574:	b2da      	uxtb	r2, r3
    3576:	697b      	ldr	r3, [r7, #20]
    3578:	705a      	strb	r2, [r3, #1]
E:\work-201605\2012-2016 M0+1-20160318\M0+2-20160325\06-User\SD-KL-CD(V6.5)-20160501\02-Software\KL25-program\ch06-UART-20160501\KL25_UART\Debug/../05_Driver/uart/uart.c:83

        //初始化控制寄存器、清标志位
        UART0_C4_REG(uartch_0) = 0x0F;
    357a:	697b      	ldr	r3, [r7, #20]
    357c:	220f      	movs	r2, #15
    357e:	729a      	strb	r2, [r3, #10]
E:\work-201605\2012-2016 M0+1-20160318\M0+2-20160325\06-User\SD-KL-CD(V6.5)-20160501\02-Software\KL25-program\ch06-UART-20160501\KL25_UART\Debug/../05_Driver/uart/uart.c:84
        UART0_C1_REG(uartch_0) = 0x00;
    3580:	697b      	ldr	r3, [r7, #20]
    3582:	2200      	movs	r2, #0
    3584:	709a      	strb	r2, [r3, #2]
E:\work-201605\2012-2016 M0+1-20160318\M0+2-20160325\06-User\SD-KL-CD(V6.5)-20160501\02-Software\KL25-program\ch06-UART-20160501\KL25_UART\Debug/../05_Driver/uart/uart.c:85
        UART0_C3_REG(uartch_0) = 0x00;
    3586:	697b      	ldr	r3, [r7, #20]
    3588:	2200      	movs	r2, #0
    358a:	719a      	strb	r2, [r3, #6]
E:\work-201605\2012-2016 M0+1-20160318\M0+2-20160325\06-User\SD-KL-CD(V6.5)-20160501\02-Software\KL25-program\ch06-UART-20160501\KL25_UART\Debug/../05_Driver/uart/uart.c:86
        UART0_MA1_REG(uartch_0) = 0x00;
    358c:	697b      	ldr	r3, [r7, #20]
    358e:	2200      	movs	r2, #0
    3590:	721a      	strb	r2, [r3, #8]
E:\work-201605\2012-2016 M0+1-20160318\M0+2-20160325\06-User\SD-KL-CD(V6.5)-20160501\02-Software\KL25-program\ch06-UART-20160501\KL25_UART\Debug/../05_Driver/uart/uart.c:87
        UART0_MA2_REG(uartch_0) = 0x00;
    3592:	697b      	ldr	r3, [r7, #20]
    3594:	2200      	movs	r2, #0
    3596:	725a      	strb	r2, [r3, #9]
E:\work-201605\2012-2016 M0+1-20160318\M0+2-20160325\06-User\SD-KL-CD(V6.5)-20160501\02-Software\KL25-program\ch06-UART-20160501\KL25_UART\Debug/../05_Driver/uart/uart.c:88
        UART0_S1_REG(uartch_0) |= 0x1F;
    3598:	697b      	ldr	r3, [r7, #20]
    359a:	791b      	ldrb	r3, [r3, #4]
    359c:	b2db      	uxtb	r3, r3
    359e:	221f      	movs	r2, #31
    35a0:	4313      	orrs	r3, r2
    35a2:	b2da      	uxtb	r2, r3
    35a4:	697b      	ldr	r3, [r7, #20]
    35a6:	711a      	strb	r2, [r3, #4]
E:\work-201605\2012-2016 M0+1-20160318\M0+2-20160325\06-User\SD-KL-CD(V6.5)-20160501\02-Software\KL25-program\ch06-UART-20160501\KL25_UART\Debug/../05_Driver/uart/uart.c:89
        UART0_S2_REG(uartch_0) |= 0xC0;
    35a8:	697b      	ldr	r3, [r7, #20]
    35aa:	795b      	ldrb	r3, [r3, #5]
    35ac:	b2db      	uxtb	r3, r3
    35ae:	2240      	movs	r2, #64	; 0x40
    35b0:	4252      	negs	r2, r2
    35b2:	4313      	orrs	r3, r2
    35b4:	b2da      	uxtb	r2, r3
    35b6:	697b      	ldr	r3, [r7, #20]
    35b8:	715a      	strb	r2, [r3, #5]
E:\work-201605\2012-2016 M0+1-20160318\M0+2-20160325\06-User\SD-KL-CD(V6.5)-20160501\02-Software\KL25-program\ch06-UART-20160501\KL25_UART\Debug/../05_Driver/uart/uart.c:91
        //禁用串口发送中断
        UART0_C2_REG(uartch_0) &= ~UART0_C2_TIE_MASK;
    35ba:	697b      	ldr	r3, [r7, #20]
    35bc:	78db      	ldrb	r3, [r3, #3]
    35be:	b2da      	uxtb	r2, r3
    35c0:	237f      	movs	r3, #127	; 0x7f
    35c2:	4013      	ands	r3, r2
    35c4:	b2da      	uxtb	r2, r3
    35c6:	697b      	ldr	r3, [r7, #20]
    35c8:	70da      	strb	r2, [r3, #3]
E:\work-201605\2012-2016 M0+1-20160318\M0+2-20160325\06-User\SD-KL-CD(V6.5)-20160501\02-Software\KL25-program\ch06-UART-20160501\KL25_UART\Debug/../05_Driver/uart/uart.c:93
        //启动发送接收
        UART0_C2_REG(uartch_0) |= (UART0_C2_TE_MASK | UART0_C2_RE_MASK);
    35ca:	697b      	ldr	r3, [r7, #20]
    35cc:	78db      	ldrb	r3, [r3, #3]
    35ce:	b2db      	uxtb	r3, r3
    35d0:	220c      	movs	r2, #12
    35d2:	4313      	orrs	r3, r2
    35d4:	b2da      	uxtb	r2, r3
    35d6:	697b      	ldr	r3, [r7, #20]
    35d8:	70da      	strb	r2, [r3, #3]
    35da:	e08a      	b.n	36f2 <uart_init+0x276>
E:\work-201605\2012-2016 M0+1-20160318\M0+2-20160325\06-User\SD-KL-CD(V6.5)-20160501\02-Software\KL25-program\ch06-UART-20160501\KL25_UART\Debug/../05_Driver/uart/uart.c:97
    }
    else
    {
        switch (uartNo)
    35dc:	1dfb      	adds	r3, r7, #7
    35de:	781b      	ldrb	r3, [r3, #0]
    35e0:	2b01      	cmp	r3, #1
    35e2:	d002      	beq.n	35ea <uart_init+0x16e>
    35e4:	2b02      	cmp	r3, #2
    35e6:	d013      	beq.n	3610 <uart_init+0x194>
E:\work-201605\2012-2016 M0+1-20160318\M0+2-20160325\06-User\SD-KL-CD(V6.5)-20160501\02-Software\KL25-program\ch06-UART-20160501\KL25_UART\Debug/../05_Driver/uart/uart.c:142
            }
#endif
            SIM_SCGC4 |= SIM_SCGC4_UART2_MASK;//启动串口2时钟
            break;
        default:
            break;  //传参错误，返回
    35e8:	e025      	b.n	3636 <uart_init+0x1ba>
E:\work-201605\2012-2016 M0+1-20160318\M0+2-20160325\06-User\SD-KL-CD(V6.5)-20160501\02-Software\KL25-program\ch06-UART-20160501\KL25_UART\Debug/../05_Driver/uart/uart.c:104
        case UART_1:
#ifdef UART_1_GROUP
            switch(UART_1_GROUP)
            {
            case 0:
                PORTE_PCR0 = PORT_PCR_MUX(0x3);    //使能UART1_TXD
    35ea:	4b49      	ldr	r3, [pc, #292]	; (3710 <uart_init+0x294>)
    35ec:	22c0      	movs	r2, #192	; 0xc0
    35ee:	0092      	lsls	r2, r2, #2
    35f0:	601a      	str	r2, [r3, #0]
E:\work-201605\2012-2016 M0+1-20160318\M0+2-20160325\06-User\SD-KL-CD(V6.5)-20160501\02-Software\KL25-program\ch06-UART-20160501\KL25_UART\Debug/../05_Driver/uart/uart.c:105
                PORTE_PCR1 = PORT_PCR_MUX(0x3);    //使能UART1_RXD
    35f2:	4b47      	ldr	r3, [pc, #284]	; (3710 <uart_init+0x294>)
    35f4:	22c0      	movs	r2, #192	; 0xc0
    35f6:	0092      	lsls	r2, r2, #2
    35f8:	605a      	str	r2, [r3, #4]
E:\work-201605\2012-2016 M0+1-20160318\M0+2-20160325\06-User\SD-KL-CD(V6.5)-20160501\02-Software\KL25-program\ch06-UART-20160501\KL25_UART\Debug/../05_Driver/uart/uart.c:106
                break;
    35fa:	46c0      	nop			; (mov r8, r8)
E:\work-201605\2012-2016 M0+1-20160318\M0+2-20160325\06-User\SD-KL-CD(V6.5)-20160501\02-Software\KL25-program\ch06-UART-20160501\KL25_UART\Debug/../05_Driver/uart/uart.c:118
                PORTC_PCR4 = PORT_PCR_MUX(0x3);    //使能UART1_TXD
                PORTC_PCR5 = PORT_PCR_MUX(0x3);    //使能UART1_RXD
                break;
            }
#endif
            SIM_SCGC4 |= SIM_SCGC4_UART1_MASK; //启动串口1时钟
    35fc:	4a3f      	ldr	r2, [pc, #252]	; (36fc <uart_init+0x280>)
    35fe:	493f      	ldr	r1, [pc, #252]	; (36fc <uart_init+0x280>)
    3600:	4b41      	ldr	r3, [pc, #260]	; (3708 <uart_init+0x28c>)
    3602:	58cb      	ldr	r3, [r1, r3]
    3604:	2180      	movs	r1, #128	; 0x80
    3606:	0109      	lsls	r1, r1, #4
    3608:	4319      	orrs	r1, r3
    360a:	4b3f      	ldr	r3, [pc, #252]	; (3708 <uart_init+0x28c>)
    360c:	50d1      	str	r1, [r2, r3]
E:\work-201605\2012-2016 M0+1-20160318\M0+2-20160325\06-User\SD-KL-CD(V6.5)-20160501\02-Software\KL25-program\ch06-UART-20160501\KL25_UART\Debug/../05_Driver/uart/uart.c:119
            break;
    360e:	e012      	b.n	3636 <uart_init+0x1ba>
E:\work-201605\2012-2016 M0+1-20160318\M0+2-20160325\06-User\SD-KL-CD(V6.5)-20160501\02-Software\KL25-program\ch06-UART-20160501\KL25_UART\Debug/../05_Driver/uart/uart.c:125
        case UART_2:
#ifdef UART_2_GROUP
            switch(UART_2_GROUP)
            {
            case 0:
                PORTE_PCR22 = PORT_PCR_MUX(0x4); //使能UART2_TXD
    3610:	4b3f      	ldr	r3, [pc, #252]	; (3710 <uart_init+0x294>)
    3612:	2280      	movs	r2, #128	; 0x80
    3614:	00d2      	lsls	r2, r2, #3
    3616:	659a      	str	r2, [r3, #88]	; 0x58
E:\work-201605\2012-2016 M0+1-20160318\M0+2-20160325\06-User\SD-KL-CD(V6.5)-20160501\02-Software\KL25-program\ch06-UART-20160501\KL25_UART\Debug/../05_Driver/uart/uart.c:126
                PORTE_PCR23 = PORT_PCR_MUX(0x4); //使能UART2_RXD
    3618:	4b3d      	ldr	r3, [pc, #244]	; (3710 <uart_init+0x294>)
    361a:	2280      	movs	r2, #128	; 0x80
    361c:	00d2      	lsls	r2, r2, #3
    361e:	65da      	str	r2, [r3, #92]	; 0x5c
E:\work-201605\2012-2016 M0+1-20160318\M0+2-20160325\06-User\SD-KL-CD(V6.5)-20160501\02-Software\KL25-program\ch06-UART-20160501\KL25_UART\Debug/../05_Driver/uart/uart.c:127
                break;
    3620:	46c0      	nop			; (mov r8, r8)
E:\work-201605\2012-2016 M0+1-20160318\M0+2-20160325\06-User\SD-KL-CD(V6.5)-20160501\02-Software\KL25-program\ch06-UART-20160501\KL25_UART\Debug/../05_Driver/uart/uart.c:139
                PORTD_PCR5 = PORT_PCR_MUX(0x3); //使能UART2_TXD
                PORTD_PCR6 = PORT_PCR_MUX(0x3); //使能UART2_RXD
                break;
            }
#endif
            SIM_SCGC4 |= SIM_SCGC4_UART2_MASK;//启动串口2时钟
    3622:	4a36      	ldr	r2, [pc, #216]	; (36fc <uart_init+0x280>)
    3624:	4935      	ldr	r1, [pc, #212]	; (36fc <uart_init+0x280>)
    3626:	4b38      	ldr	r3, [pc, #224]	; (3708 <uart_init+0x28c>)
    3628:	58cb      	ldr	r3, [r1, r3]
    362a:	2180      	movs	r1, #128	; 0x80
    362c:	0149      	lsls	r1, r1, #5
    362e:	4319      	orrs	r1, r3
    3630:	4b35      	ldr	r3, [pc, #212]	; (3708 <uart_init+0x28c>)
    3632:	50d1      	str	r1, [r2, r3]
E:\work-201605\2012-2016 M0+1-20160318\M0+2-20160325\06-User\SD-KL-CD(V6.5)-20160501\02-Software\KL25-program\ch06-UART-20160501\KL25_UART\Debug/../05_Driver/uart/uart.c:140
            break;
    3634:	46c0      	nop			; (mov r8, r8)
E:\work-201605\2012-2016 M0+1-20160318\M0+2-20160325\06-User\SD-KL-CD(V6.5)-20160501\02-Software\KL25-program\ch06-UART-20160501\KL25_UART\Debug/../05_Driver/uart/uart.c:144
        default:
            break;  //传参错误，返回
        }
        uartch_1_2 = UART_ARR[uartNo-1]; //获得UART1、2模块相应口基地址
    3636:	1dfb      	adds	r3, r7, #7
    3638:	781b      	ldrb	r3, [r3, #0]
    363a:	1e5a      	subs	r2, r3, #1
    363c:	4b35      	ldr	r3, [pc, #212]	; (3714 <uart_init+0x298>)
    363e:	0092      	lsls	r2, r2, #2
    3640:	58d3      	ldr	r3, [r2, r3]
    3642:	60fb      	str	r3, [r7, #12]
E:\work-201605\2012-2016 M0+1-20160318\M0+2-20160325\06-User\SD-KL-CD(V6.5)-20160501\02-Software\KL25-program\ch06-UART-20160501\KL25_UART\Debug/../05_Driver/uart/uart.c:147

        //暂时关闭串口1、2发送与接收功能
        UART_C2_REG(uartch_1_2) &= ~(UART_C2_TE_MASK | UART_C2_RE_MASK);
    3644:	68fb      	ldr	r3, [r7, #12]
    3646:	78db      	ldrb	r3, [r3, #3]
    3648:	b2db      	uxtb	r3, r3
    364a:	220c      	movs	r2, #12
    364c:	4393      	bics	r3, r2
    364e:	b2da      	uxtb	r2, r3
    3650:	68fb      	ldr	r3, [r7, #12]
    3652:	70da      	strb	r2, [r3, #3]
E:\work-201605\2012-2016 M0+1-20160318\M0+2-20160325\06-User\SD-KL-CD(V6.5)-20160501\02-Software\KL25-program\ch06-UART-20160501\KL25_UART\Debug/../05_Driver/uart/uart.c:151

        //配置波特率,KL25串口1、2时钟频率使用 Bus clock = 24M 总线时钟
        //配置串口工作模式,8位无校验模式
        sbr = (uint_16)((BUS_CLK_KHZ*1000)/(baud_rate * 16));
    3654:	4b2d      	ldr	r3, [pc, #180]	; (370c <uart_init+0x290>)
    3656:	681b      	ldr	r3, [r3, #0]
    3658:	1c18      	adds	r0, r3, #0
    365a:	23fa      	movs	r3, #250	; 0xfa
    365c:	00d9      	lsls	r1, r3, #3
    365e:	f7fd f8f5 	bl	84c <__aeabi_uidiv>
    3662:	1c03      	adds	r3, r0, #0
    3664:	22fa      	movs	r2, #250	; 0xfa
    3666:	0092      	lsls	r2, r2, #2
    3668:	435a      	muls	r2, r3
    366a:	683b      	ldr	r3, [r7, #0]
    366c:	011b      	lsls	r3, r3, #4
    366e:	1c10      	adds	r0, r2, #0
    3670:	1c19      	adds	r1, r3, #0
    3672:	f7fd f8eb 	bl	84c <__aeabi_uidiv>
    3676:	1c03      	adds	r3, r0, #0
    3678:	1c1a      	adds	r2, r3, #0
    367a:	1c3b      	adds	r3, r7, #0
    367c:	3312      	adds	r3, #18
    367e:	801a      	strh	r2, [r3, #0]
E:\work-201605\2012-2016 M0+1-20160318\M0+2-20160325\06-User\SD-KL-CD(V6.5)-20160501\02-Software\KL25-program\ch06-UART-20160501\KL25_UART\Debug/../05_Driver/uart/uart.c:152
        temp = UART_BDH_REG(uartch_1_2) & ~(UART_BDH_SBR(0x1F));
    3680:	68fb      	ldr	r3, [r7, #12]
    3682:	781b      	ldrb	r3, [r3, #0]
    3684:	b2da      	uxtb	r2, r3
    3686:	1c3b      	adds	r3, r7, #0
    3688:	3311      	adds	r3, #17
    368a:	211f      	movs	r1, #31
    368c:	438a      	bics	r2, r1
    368e:	701a      	strb	r2, [r3, #0]
E:\work-201605\2012-2016 M0+1-20160318\M0+2-20160325\06-User\SD-KL-CD(V6.5)-20160501\02-Software\KL25-program\ch06-UART-20160501\KL25_UART\Debug/../05_Driver/uart/uart.c:153
        UART_BDH_REG(uartch_1_2) = temp |  UART_BDH_SBR(((sbr & 0x1F00) >> 8));
    3690:	1c3b      	adds	r3, r7, #0
    3692:	3312      	adds	r3, #18
    3694:	881a      	ldrh	r2, [r3, #0]
    3696:	23f8      	movs	r3, #248	; 0xf8
    3698:	015b      	lsls	r3, r3, #5
    369a:	4013      	ands	r3, r2
    369c:	121b      	asrs	r3, r3, #8
    369e:	b2da      	uxtb	r2, r3
    36a0:	231f      	movs	r3, #31
    36a2:	4013      	ands	r3, r2
    36a4:	b2da      	uxtb	r2, r3
    36a6:	1c3b      	adds	r3, r7, #0
    36a8:	3311      	adds	r3, #17
    36aa:	781b      	ldrb	r3, [r3, #0]
    36ac:	4313      	orrs	r3, r2
    36ae:	b2da      	uxtb	r2, r3
    36b0:	68fb      	ldr	r3, [r7, #12]
    36b2:	701a      	strb	r2, [r3, #0]
E:\work-201605\2012-2016 M0+1-20160318\M0+2-20160325\06-User\SD-KL-CD(V6.5)-20160501\02-Software\KL25-program\ch06-UART-20160501\KL25_UART\Debug/../05_Driver/uart/uart.c:154
        UART_BDL_REG(uartch_1_2) = (uint_8)(sbr & UART_BDL_SBR_MASK);
    36b4:	1c3b      	adds	r3, r7, #0
    36b6:	3312      	adds	r3, #18
    36b8:	881b      	ldrh	r3, [r3, #0]
    36ba:	b2da      	uxtb	r2, r3
    36bc:	68fb      	ldr	r3, [r7, #12]
    36be:	705a      	strb	r2, [r3, #1]
E:\work-201605\2012-2016 M0+1-20160318\M0+2-20160325\06-User\SD-KL-CD(V6.5)-20160501\02-Software\KL25-program\ch06-UART-20160501\KL25_UART\Debug/../05_Driver/uart/uart.c:157

        //初始化控制寄存器、清标志位
        UART_C1_REG(uartch_1_2)=0x00;
    36c0:	68fb      	ldr	r3, [r7, #12]
    36c2:	2200      	movs	r2, #0
    36c4:	709a      	strb	r2, [r3, #2]
E:\work-201605\2012-2016 M0+1-20160318\M0+2-20160325\06-User\SD-KL-CD(V6.5)-20160501\02-Software\KL25-program\ch06-UART-20160501\KL25_UART\Debug/../05_Driver/uart/uart.c:158
        UART_C3_REG(uartch_1_2)=0x00;
    36c6:	68fb      	ldr	r3, [r7, #12]
    36c8:	2200      	movs	r2, #0
    36ca:	719a      	strb	r2, [r3, #6]
E:\work-201605\2012-2016 M0+1-20160318\M0+2-20160325\06-User\SD-KL-CD(V6.5)-20160501\02-Software\KL25-program\ch06-UART-20160501\KL25_UART\Debug/../05_Driver/uart/uart.c:159
        UART_S2_REG(uartch_1_2)=0x00;
    36cc:	68fb      	ldr	r3, [r7, #12]
    36ce:	2200      	movs	r2, #0
    36d0:	715a      	strb	r2, [r3, #5]
E:\work-201605\2012-2016 M0+1-20160318\M0+2-20160325\06-User\SD-KL-CD(V6.5)-20160501\02-Software\KL25-program\ch06-UART-20160501\KL25_UART\Debug/../05_Driver/uart/uart.c:161
        //禁用串口发送中断
        UART_C2_REG(uartch_1_2) &= ~UART_C2_TIE_MASK;
    36d2:	68fb      	ldr	r3, [r7, #12]
    36d4:	78db      	ldrb	r3, [r3, #3]
    36d6:	b2da      	uxtb	r2, r3
    36d8:	237f      	movs	r3, #127	; 0x7f
    36da:	4013      	ands	r3, r2
    36dc:	b2da      	uxtb	r2, r3
    36de:	68fb      	ldr	r3, [r7, #12]
    36e0:	70da      	strb	r2, [r3, #3]
E:\work-201605\2012-2016 M0+1-20160318\M0+2-20160325\06-User\SD-KL-CD(V6.5)-20160501\02-Software\KL25-program\ch06-UART-20160501\KL25_UART\Debug/../05_Driver/uart/uart.c:163
        //启动发送接收
        UART_C2_REG(uartch_1_2)|= (UART_C2_TE_MASK | UART_C2_RE_MASK);
    36e2:	68fb      	ldr	r3, [r7, #12]
    36e4:	78db      	ldrb	r3, [r3, #3]
    36e6:	b2db      	uxtb	r3, r3
    36e8:	220c      	movs	r2, #12
    36ea:	4313      	orrs	r3, r2
    36ec:	b2da      	uxtb	r2, r3
    36ee:	68fb      	ldr	r3, [r7, #12]
    36f0:	70da      	strb	r2, [r3, #3]
E:\work-201605\2012-2016 M0+1-20160318\M0+2-20160325\06-User\SD-KL-CD(V6.5)-20160501\02-Software\KL25-program\ch06-UART-20160501\KL25_UART\Debug/../05_Driver/uart/uart.c:165
    }
}
    36f2:	46bd      	mov	sp, r7
    36f4:	b006      	add	sp, #24
    36f6:	bd80      	pop	{r7, pc}
    36f8:	4006a000 	.word	0x4006a000
    36fc:	40047000 	.word	0x40047000
    3700:	00001004 	.word	0x00001004
    3704:	40049000 	.word	0x40049000
    3708:	00001034 	.word	0x00001034
    370c:	1ffff004 	.word	0x1ffff004
    3710:	4004d000 	.word	0x4004d000
    3714:	000040c8 	.word	0x000040c8

00003718 <uart_send1>:
uart_send1():
E:\work-201605\2012-2016 M0+1-20160318\M0+2-20160325\06-User\SD-KL-CD(V6.5)-20160501\02-Software\KL25-program\ch06-UART-20160501\KL25_UART\Debug/../05_Driver/uart/uart.c:174
//          ch:要发送的字节
//函数返回：函数执行状态：1=发送成功；0=发送失败。
//功能概要：串行发送1个字节
//======================================================================
uint_8 uart_send1(uint_8 uartNo, uint_8 ch)
{
    3718:	b580      	push	{r7, lr}
    371a:	b086      	sub	sp, #24
    371c:	af00      	add	r7, sp, #0
    371e:	1c0a      	adds	r2, r1, #0
    3720:	1dfb      	adds	r3, r7, #7
    3722:	1c01      	adds	r1, r0, #0
    3724:	7019      	strb	r1, [r3, #0]
    3726:	1dbb      	adds	r3, r7, #6
    3728:	701a      	strb	r2, [r3, #0]
E:\work-201605\2012-2016 M0+1-20160318\M0+2-20160325\06-User\SD-KL-CD(V6.5)-20160501\02-Software\KL25-program\ch06-UART-20160501\KL25_UART\Debug/../05_Driver/uart/uart.c:176
    uint_32 t;
    UART0_MemMapPtr uartch_0=UART0_BASE_PTR; //获取UART0基地址
    372a:	4b22      	ldr	r3, [pc, #136]	; (37b4 <uart_send1+0x9c>)
    372c:	613b      	str	r3, [r7, #16]
E:\work-201605\2012-2016 M0+1-20160318\M0+2-20160325\06-User\SD-KL-CD(V6.5)-20160501\02-Software\KL25-program\ch06-UART-20160501\KL25_UART\Debug/../05_Driver/uart/uart.c:177
    UART_MemMapPtr uartch_1_2 = UART_ARR[uartNo-1]; //获取UART1或者2基地址
    372e:	1dfb      	adds	r3, r7, #7
    3730:	781b      	ldrb	r3, [r3, #0]
    3732:	1e5a      	subs	r2, r3, #1
    3734:	4b20      	ldr	r3, [pc, #128]	; (37b8 <uart_send1+0xa0>)
    3736:	0092      	lsls	r2, r2, #2
    3738:	58d3      	ldr	r3, [r2, r3]
    373a:	60fb      	str	r3, [r7, #12]
E:\work-201605\2012-2016 M0+1-20160318\M0+2-20160325\06-User\SD-KL-CD(V6.5)-20160501\02-Software\KL25-program\ch06-UART-20160501\KL25_UART\Debug/../05_Driver/uart/uart.c:180

    //判断传入串口号参数是否有误，有误直接退出
    if(!uart_is_uartNo(uartNo))
    373c:	1dfb      	adds	r3, r7, #7
    373e:	781b      	ldrb	r3, [r3, #0]
    3740:	1c18      	adds	r0, r3, #0
    3742:	f000 f995 	bl	3a70 <uart_is_uartNo>
    3746:	1c03      	adds	r3, r0, #0
    3748:	2b00      	cmp	r3, #0
    374a:	d101      	bne.n	3750 <uart_send1+0x38>
E:\work-201605\2012-2016 M0+1-20160318\M0+2-20160325\06-User\SD-KL-CD(V6.5)-20160501\02-Software\KL25-program\ch06-UART-20160501\KL25_UART\Debug/../05_Driver/uart/uart.c:182
    {
        return 0;
    374c:	2300      	movs	r3, #0
    374e:	e02c      	b.n	37aa <uart_send1+0x92>
E:\work-201605\2012-2016 M0+1-20160318\M0+2-20160325\06-User\SD-KL-CD(V6.5)-20160501\02-Software\KL25-program\ch06-UART-20160501\KL25_UART\Debug/../05_Driver/uart/uart.c:185
    }

    for (t = 0; t < 0xFBBB; t++)//查询指定次数
    3750:	2300      	movs	r3, #0
    3752:	617b      	str	r3, [r7, #20]
    3754:	e01e      	b.n	3794 <uart_send1+0x7c>
E:\work-201605\2012-2016 M0+1-20160318\M0+2-20160325\06-User\SD-KL-CD(V6.5)-20160501\02-Software\KL25-program\ch06-UART-20160501\KL25_UART\Debug/../05_Driver/uart/uart.c:187
    {
        if(0==uartNo)     //判断使用的哪个串口
    3756:	1dfb      	adds	r3, r7, #7
    3758:	781b      	ldrb	r3, [r3, #0]
    375a:	2b00      	cmp	r3, #0
    375c:	d10b      	bne.n	3776 <uart_send1+0x5e>
E:\work-201605\2012-2016 M0+1-20160318\M0+2-20160325\06-User\SD-KL-CD(V6.5)-20160501\02-Software\KL25-program\ch06-UART-20160501\KL25_UART\Debug/../05_Driver/uart/uart.c:190
        {
        	//发送缓冲区为空则发送数据
            if ( UART0_S1_REG(uartch_0) & UART0_S1_TDRE_MASK )
    375e:	693b      	ldr	r3, [r7, #16]
    3760:	791b      	ldrb	r3, [r3, #4]
    3762:	b2db      	uxtb	r3, r3
    3764:	b2db      	uxtb	r3, r3
    3766:	b25b      	sxtb	r3, r3
    3768:	2b00      	cmp	r3, #0
    376a:	da10      	bge.n	378e <uart_send1+0x76>
E:\work-201605\2012-2016 M0+1-20160318\M0+2-20160325\06-User\SD-KL-CD(V6.5)-20160501\02-Software\KL25-program\ch06-UART-20160501\KL25_UART\Debug/../05_Driver/uart/uart.c:192
            {
                UART0_D_REG(uartch_0) = ch;
    376c:	693b      	ldr	r3, [r7, #16]
    376e:	1dba      	adds	r2, r7, #6
    3770:	7812      	ldrb	r2, [r2, #0]
    3772:	71da      	strb	r2, [r3, #7]
E:\work-201605\2012-2016 M0+1-20160318\M0+2-20160325\06-User\SD-KL-CD(V6.5)-20160501\02-Software\KL25-program\ch06-UART-20160501\KL25_UART\Debug/../05_Driver/uart/uart.c:193
                break;
    3774:	e012      	b.n	379c <uart_send1+0x84>
E:\work-201605\2012-2016 M0+1-20160318\M0+2-20160325\06-User\SD-KL-CD(V6.5)-20160501\02-Software\KL25-program\ch06-UART-20160501\KL25_UART\Debug/../05_Driver/uart/uart.c:199
            }
        }
        else
        {
        	//发送缓冲区为空则发送数据
            if (UART_S1_REG(uartch_1_2) & UART_S1_TDRE_MASK )
    3776:	68fb      	ldr	r3, [r7, #12]
    3778:	791b      	ldrb	r3, [r3, #4]
    377a:	b2db      	uxtb	r3, r3
    377c:	b2db      	uxtb	r3, r3
    377e:	b25b      	sxtb	r3, r3
    3780:	2b00      	cmp	r3, #0
    3782:	da04      	bge.n	378e <uart_send1+0x76>
E:\work-201605\2012-2016 M0+1-20160318\M0+2-20160325\06-User\SD-KL-CD(V6.5)-20160501\02-Software\KL25-program\ch06-UART-20160501\KL25_UART\Debug/../05_Driver/uart/uart.c:201
            {
                UART_D_REG(uartch_1_2) = ch;
    3784:	68fb      	ldr	r3, [r7, #12]
    3786:	1dba      	adds	r2, r7, #6
    3788:	7812      	ldrb	r2, [r2, #0]
    378a:	71da      	strb	r2, [r3, #7]
E:\work-201605\2012-2016 M0+1-20160318\M0+2-20160325\06-User\SD-KL-CD(V6.5)-20160501\02-Software\KL25-program\ch06-UART-20160501\KL25_UART\Debug/../05_Driver/uart/uart.c:202
                break;
    378c:	e006      	b.n	379c <uart_send1+0x84>
E:\work-201605\2012-2016 M0+1-20160318\M0+2-20160325\06-User\SD-KL-CD(V6.5)-20160501\02-Software\KL25-program\ch06-UART-20160501\KL25_UART\Debug/../05_Driver/uart/uart.c:185
    if(!uart_is_uartNo(uartNo))
    {
        return 0;
    }

    for (t = 0; t < 0xFBBB; t++)//查询指定次数
    378e:	697b      	ldr	r3, [r7, #20]
    3790:	3301      	adds	r3, #1
    3792:	617b      	str	r3, [r7, #20]
E:\work-201605\2012-2016 M0+1-20160318\M0+2-20160325\06-User\SD-KL-CD(V6.5)-20160501\02-Software\KL25-program\ch06-UART-20160501\KL25_UART\Debug/../05_Driver/uart/uart.c:185 (discriminator 1)
    3794:	697a      	ldr	r2, [r7, #20]
    3796:	4b09      	ldr	r3, [pc, #36]	; (37bc <uart_send1+0xa4>)
    3798:	429a      	cmp	r2, r3
    379a:	d9dc      	bls.n	3756 <uart_send1+0x3e>
E:\work-201605\2012-2016 M0+1-20160318\M0+2-20160325\06-User\SD-KL-CD(V6.5)-20160501\02-Software\KL25-program\ch06-UART-20160501\KL25_UART\Debug/../05_Driver/uart/uart.c:206
                UART_D_REG(uartch_1_2) = ch;
                break;
            }
        }
    }//end for
    if (t >= 0xFBBB)
    379c:	697a      	ldr	r2, [r7, #20]
    379e:	4b07      	ldr	r3, [pc, #28]	; (37bc <uart_send1+0xa4>)
    37a0:	429a      	cmp	r2, r3
    37a2:	d901      	bls.n	37a8 <uart_send1+0x90>
E:\work-201605\2012-2016 M0+1-20160318\M0+2-20160325\06-User\SD-KL-CD(V6.5)-20160501\02-Software\KL25-program\ch06-UART-20160501\KL25_UART\Debug/../05_Driver/uart/uart.c:207
        return 0; //发送超时，发送失败
    37a4:	2300      	movs	r3, #0
    37a6:	e000      	b.n	37aa <uart_send1+0x92>
E:\work-201605\2012-2016 M0+1-20160318\M0+2-20160325\06-User\SD-KL-CD(V6.5)-20160501\02-Software\KL25-program\ch06-UART-20160501\KL25_UART\Debug/../05_Driver/uart/uart.c:209
    else
        return 1; //成功发送
    37a8:	2301      	movs	r3, #1
E:\work-201605\2012-2016 M0+1-20160318\M0+2-20160325\06-User\SD-KL-CD(V6.5)-20160501\02-Software\KL25-program\ch06-UART-20160501\KL25_UART\Debug/../05_Driver/uart/uart.c:210
}
    37aa:	1c18      	adds	r0, r3, #0
    37ac:	46bd      	mov	sp, r7
    37ae:	b006      	add	sp, #24
    37b0:	bd80      	pop	{r7, pc}
    37b2:	46c0      	nop			; (mov r8, r8)
    37b4:	4006a000 	.word	0x4006a000
    37b8:	000040c8 	.word	0x000040c8
    37bc:	0000fbba 	.word	0x0000fbba

000037c0 <uart_send_string>:
uart_send_string():
E:\work-201605\2012-2016 M0+1-20160318\M0+2-20160325\06-User\SD-KL-CD(V6.5)-20160501\02-Software\KL25-program\ch06-UART-20160501\KL25_UART\Debug/../05_Driver/uart/uart.c:251
//          buff:要发送的字符串的首地址
//函数返回： 函数执行状态：1=发送成功；0=发送失败
//功能概要：从指定UART端口发送一个以'\0'结束的字符串
//======================================================================
uint_8 uart_send_string(uint_8 uartNo, void *buff)
{
    37c0:	b580      	push	{r7, lr}
    37c2:	b084      	sub	sp, #16
    37c4:	af00      	add	r7, sp, #0
    37c6:	1c02      	adds	r2, r0, #0
    37c8:	6039      	str	r1, [r7, #0]
    37ca:	1dfb      	adds	r3, r7, #7
    37cc:	701a      	strb	r2, [r3, #0]
E:\work-201605\2012-2016 M0+1-20160318\M0+2-20160325\06-User\SD-KL-CD(V6.5)-20160501\02-Software\KL25-program\ch06-UART-20160501\KL25_UART\Debug/../05_Driver/uart/uart.c:252
    uint_16 i = 0;
    37ce:	1c3b      	adds	r3, r7, #0
    37d0:	330e      	adds	r3, #14
    37d2:	2200      	movs	r2, #0
    37d4:	801a      	strh	r2, [r3, #0]
E:\work-201605\2012-2016 M0+1-20160318\M0+2-20160325\06-User\SD-KL-CD(V6.5)-20160501\02-Software\KL25-program\ch06-UART-20160501\KL25_UART\Debug/../05_Driver/uart/uart.c:253
    uint_8 *buff_ptr = (uint_8 *)buff;     //定义指针指向要发送字符串首地址
    37d6:	683b      	ldr	r3, [r7, #0]
    37d8:	60bb      	str	r3, [r7, #8]
E:\work-201605\2012-2016 M0+1-20160318\M0+2-20160325\06-User\SD-KL-CD(V6.5)-20160501\02-Software\KL25-program\ch06-UART-20160501\KL25_UART\Debug/../05_Driver/uart/uart.c:256

    //判断传入串口号参数是否有误，有误直接退出
    if(!uart_is_uartNo(uartNo))
    37da:	1dfb      	adds	r3, r7, #7
    37dc:	781b      	ldrb	r3, [r3, #0]
    37de:	1c18      	adds	r0, r3, #0
    37e0:	f000 f946 	bl	3a70 <uart_is_uartNo>
    37e4:	1c03      	adds	r3, r0, #0
    37e6:	2b00      	cmp	r3, #0
    37e8:	d101      	bne.n	37ee <uart_send_string+0x2e>
E:\work-201605\2012-2016 M0+1-20160318\M0+2-20160325\06-User\SD-KL-CD(V6.5)-20160501\02-Software\KL25-program\ch06-UART-20160501\KL25_UART\Debug/../05_Driver/uart/uart.c:258
    {
        return 0;
    37ea:	2300      	movs	r3, #0
    37ec:	e025      	b.n	383a <uart_send_string+0x7a>
E:\work-201605\2012-2016 M0+1-20160318\M0+2-20160325\06-User\SD-KL-CD(V6.5)-20160501\02-Software\KL25-program\ch06-UART-20160501\KL25_UART\Debug/../05_Driver/uart/uart.c:261
    }

    for(i = 0; buff_ptr[i] != '\0'; i++)   //遍历字符串里的字符
    37ee:	1c3b      	adds	r3, r7, #0
    37f0:	330e      	adds	r3, #14
    37f2:	2200      	movs	r2, #0
    37f4:	801a      	strh	r2, [r3, #0]
    37f6:	e017      	b.n	3828 <uart_send_string+0x68>
E:\work-201605\2012-2016 M0+1-20160318\M0+2-20160325\06-User\SD-KL-CD(V6.5)-20160501\02-Software\KL25-program\ch06-UART-20160501\KL25_UART\Debug/../05_Driver/uart/uart.c:263
    {
        if (!uart_send1(uartNo,buff_ptr[i]))//发送指针对应的字符
    37f8:	1c3b      	adds	r3, r7, #0
    37fa:	330e      	adds	r3, #14
    37fc:	881b      	ldrh	r3, [r3, #0]
    37fe:	68ba      	ldr	r2, [r7, #8]
    3800:	18d3      	adds	r3, r2, r3
    3802:	781b      	ldrb	r3, [r3, #0]
    3804:	1dfa      	adds	r2, r7, #7
    3806:	7812      	ldrb	r2, [r2, #0]
    3808:	1c10      	adds	r0, r2, #0
    380a:	1c19      	adds	r1, r3, #0
    380c:	f7ff ff84 	bl	3718 <uart_send1>
    3810:	1c03      	adds	r3, r0, #0
    3812:	2b00      	cmp	r3, #0
    3814:	d101      	bne.n	381a <uart_send_string+0x5a>
E:\work-201605\2012-2016 M0+1-20160318\M0+2-20160325\06-User\SD-KL-CD(V6.5)-20160501\02-Software\KL25-program\ch06-UART-20160501\KL25_UART\Debug/../05_Driver/uart/uart.c:264
            return 0;  //发送失败,返回
    3816:	2300      	movs	r3, #0
    3818:	e00f      	b.n	383a <uart_send_string+0x7a>
E:\work-201605\2012-2016 M0+1-20160318\M0+2-20160325\06-User\SD-KL-CD(V6.5)-20160501\02-Software\KL25-program\ch06-UART-20160501\KL25_UART\Debug/../05_Driver/uart/uart.c:261
    if(!uart_is_uartNo(uartNo))
    {
        return 0;
    }

    for(i = 0; buff_ptr[i] != '\0'; i++)   //遍历字符串里的字符
    381a:	1c3b      	adds	r3, r7, #0
    381c:	330e      	adds	r3, #14
    381e:	881a      	ldrh	r2, [r3, #0]
    3820:	1c3b      	adds	r3, r7, #0
    3822:	330e      	adds	r3, #14
    3824:	3201      	adds	r2, #1
    3826:	801a      	strh	r2, [r3, #0]
E:\work-201605\2012-2016 M0+1-20160318\M0+2-20160325\06-User\SD-KL-CD(V6.5)-20160501\02-Software\KL25-program\ch06-UART-20160501\KL25_UART\Debug/../05_Driver/uart/uart.c:261 (discriminator 1)
    3828:	1c3b      	adds	r3, r7, #0
    382a:	330e      	adds	r3, #14
    382c:	881b      	ldrh	r3, [r3, #0]
    382e:	68ba      	ldr	r2, [r7, #8]
    3830:	18d3      	adds	r3, r2, r3
    3832:	781b      	ldrb	r3, [r3, #0]
    3834:	2b00      	cmp	r3, #0
    3836:	d1df      	bne.n	37f8 <uart_send_string+0x38>
E:\work-201605\2012-2016 M0+1-20160318\M0+2-20160325\06-User\SD-KL-CD(V6.5)-20160501\02-Software\KL25-program\ch06-UART-20160501\KL25_UART\Debug/../05_Driver/uart/uart.c:266
    {
        if (!uart_send1(uartNo,buff_ptr[i]))//发送指针对应的字符
            return 0;  //发送失败,返回
    }
    return 1;          //发送成功
    3838:	2301      	movs	r3, #1
E:\work-201605\2012-2016 M0+1-20160318\M0+2-20160325\06-User\SD-KL-CD(V6.5)-20160501\02-Software\KL25-program\ch06-UART-20160501\KL25_UART\Debug/../05_Driver/uart/uart.c:267
}
    383a:	1c18      	adds	r0, r3, #0
    383c:	46bd      	mov	sp, r7
    383e:	b004      	add	sp, #16
    3840:	bd80      	pop	{r7, pc}
    3842:	46c0      	nop			; (mov r8, r8)

00003844 <uart_re1>:
uart_re1():
E:\work-201605\2012-2016 M0+1-20160318\M0+2-20160325\06-User\SD-KL-CD(V6.5)-20160501\02-Software\KL25-program\ch06-UART-20160501\KL25_UART\Debug/../05_Driver/uart/uart.c:277
//        *fp:接收成功标志的指针:*fp=1:接收成功；*fp=0:接收失败
//函数返回：接收返回字节
//功能概要：串行接收1个字节
//======================================================================
uint_8 uart_re1(uint_8 uartNo,uint_8 *fp)
{
    3844:	b580      	push	{r7, lr}
    3846:	b086      	sub	sp, #24
    3848:	af00      	add	r7, sp, #0
    384a:	1c02      	adds	r2, r0, #0
    384c:	6039      	str	r1, [r7, #0]
    384e:	1dfb      	adds	r3, r7, #7
    3850:	701a      	strb	r2, [r3, #0]
E:\work-201605\2012-2016 M0+1-20160318\M0+2-20160325\06-User\SD-KL-CD(V6.5)-20160501\02-Software\KL25-program\ch06-UART-20160501\KL25_UART\Debug/../05_Driver/uart/uart.c:280
    uint_32 t;
    uint_8  dat;
    UART0_MemMapPtr uartch_0=UART0_BASE_PTR; //获取UART0基地址
    3852:	4b2b      	ldr	r3, [pc, #172]	; (3900 <uart_re1+0xbc>)
    3854:	60fb      	str	r3, [r7, #12]
E:\work-201605\2012-2016 M0+1-20160318\M0+2-20160325\06-User\SD-KL-CD(V6.5)-20160501\02-Software\KL25-program\ch06-UART-20160501\KL25_UART\Debug/../05_Driver/uart/uart.c:281
    UART_MemMapPtr uartch_1_2 = UART_ARR[uartNo-1]; //获取UART1或者2基地址
    3856:	1dfb      	adds	r3, r7, #7
    3858:	781b      	ldrb	r3, [r3, #0]
    385a:	1e5a      	subs	r2, r3, #1
    385c:	4b29      	ldr	r3, [pc, #164]	; (3904 <uart_re1+0xc0>)
    385e:	0092      	lsls	r2, r2, #2
    3860:	58d3      	ldr	r3, [r2, r3]
    3862:	60bb      	str	r3, [r7, #8]
E:\work-201605\2012-2016 M0+1-20160318\M0+2-20160325\06-User\SD-KL-CD(V6.5)-20160501\02-Software\KL25-program\ch06-UART-20160501\KL25_UART\Debug/../05_Driver/uart/uart.c:284

    //判断传入串口号参数是否有误，有误直接退出
    if(!uart_is_uartNo(uartNo))
    3864:	1dfb      	adds	r3, r7, #7
    3866:	781b      	ldrb	r3, [r3, #0]
    3868:	1c18      	adds	r0, r3, #0
    386a:	f000 f901 	bl	3a70 <uart_is_uartNo>
    386e:	1c03      	adds	r3, r0, #0
    3870:	2b00      	cmp	r3, #0
    3872:	d104      	bne.n	387e <uart_re1+0x3a>
E:\work-201605\2012-2016 M0+1-20160318\M0+2-20160325\06-User\SD-KL-CD(V6.5)-20160501\02-Software\KL25-program\ch06-UART-20160501\KL25_UART\Debug/../05_Driver/uart/uart.c:286
    {
        *fp=0;
    3874:	683b      	ldr	r3, [r7, #0]
    3876:	2200      	movs	r2, #0
    3878:	701a      	strb	r2, [r3, #0]
E:\work-201605\2012-2016 M0+1-20160318\M0+2-20160325\06-User\SD-KL-CD(V6.5)-20160501\02-Software\KL25-program\ch06-UART-20160501\KL25_UART\Debug/../05_Driver/uart/uart.c:287
        return 0;
    387a:	2300      	movs	r3, #0
    387c:	e03b      	b.n	38f6 <uart_re1+0xb2>
E:\work-201605\2012-2016 M0+1-20160318\M0+2-20160325\06-User\SD-KL-CD(V6.5)-20160501\02-Software\KL25-program\ch06-UART-20160501\KL25_UART\Debug/../05_Driver/uart/uart.c:290
    }

    for (t = 0; t < 0xFBBB; t++)//查询指定次数
    387e:	2300      	movs	r3, #0
    3880:	617b      	str	r3, [r7, #20]
    3882:	e026      	b.n	38d2 <uart_re1+0x8e>
E:\work-201605\2012-2016 M0+1-20160318\M0+2-20160325\06-User\SD-KL-CD(V6.5)-20160501\02-Software\KL25-program\ch06-UART-20160501\KL25_UART\Debug/../05_Driver/uart/uart.c:292
    {
        if(0==uartNo)  //判断使用的哪个串口
    3884:	1dfb      	adds	r3, r7, #7
    3886:	781b      	ldrb	r3, [r3, #0]
    3888:	2b00      	cmp	r3, #0
    388a:	d10f      	bne.n	38ac <uart_re1+0x68>
E:\work-201605\2012-2016 M0+1-20160318\M0+2-20160325\06-User\SD-KL-CD(V6.5)-20160501\02-Software\KL25-program\ch06-UART-20160501\KL25_UART\Debug/../05_Driver/uart/uart.c:295
        {
        //判断接收缓冲区是否满
        if (UART0_S1_REG(uartch_0) & UART0_S1_RDRF_MASK)
    388c:	68fb      	ldr	r3, [r7, #12]
    388e:	791b      	ldrb	r3, [r3, #4]
    3890:	b2db      	uxtb	r3, r3
    3892:	1c1a      	adds	r2, r3, #0
    3894:	2320      	movs	r3, #32
    3896:	4013      	ands	r3, r2
    3898:	d018      	beq.n	38cc <uart_re1+0x88>
E:\work-201605\2012-2016 M0+1-20160318\M0+2-20160325\06-User\SD-KL-CD(V6.5)-20160501\02-Software\KL25-program\ch06-UART-20160501\KL25_UART\Debug/../05_Driver/uart/uart.c:297
            {
                dat=UART0_D_REG(uartch_0);    //获取数据,清接收中断位
    389a:	1c3b      	adds	r3, r7, #0
    389c:	3313      	adds	r3, #19
    389e:	68fa      	ldr	r2, [r7, #12]
    38a0:	79d2      	ldrb	r2, [r2, #7]
    38a2:	701a      	strb	r2, [r3, #0]
E:\work-201605\2012-2016 M0+1-20160318\M0+2-20160325\06-User\SD-KL-CD(V6.5)-20160501\02-Software\KL25-program\ch06-UART-20160501\KL25_UART\Debug/../05_Driver/uart/uart.c:298
                *fp = 1;  //接收成功
    38a4:	683b      	ldr	r3, [r7, #0]
    38a6:	2201      	movs	r2, #1
    38a8:	701a      	strb	r2, [r3, #0]
E:\work-201605\2012-2016 M0+1-20160318\M0+2-20160325\06-User\SD-KL-CD(V6.5)-20160501\02-Software\KL25-program\ch06-UART-20160501\KL25_UART\Debug/../05_Driver/uart/uart.c:299
                break;
    38aa:	e016      	b.n	38da <uart_re1+0x96>
E:\work-201605\2012-2016 M0+1-20160318\M0+2-20160325\06-User\SD-KL-CD(V6.5)-20160501\02-Software\KL25-program\ch06-UART-20160501\KL25_UART\Debug/../05_Driver/uart/uart.c:305
            }
        }
        else
        {
            //判断接收缓冲区是否满
            if(UART_S1_REG(uartch_1_2) & UART_S1_RDRF_MASK)
    38ac:	68bb      	ldr	r3, [r7, #8]
    38ae:	791b      	ldrb	r3, [r3, #4]
    38b0:	b2db      	uxtb	r3, r3
    38b2:	1c1a      	adds	r2, r3, #0
    38b4:	2320      	movs	r3, #32
    38b6:	4013      	ands	r3, r2
    38b8:	d008      	beq.n	38cc <uart_re1+0x88>
E:\work-201605\2012-2016 M0+1-20160318\M0+2-20160325\06-User\SD-KL-CD(V6.5)-20160501\02-Software\KL25-program\ch06-UART-20160501\KL25_UART\Debug/../05_Driver/uart/uart.c:307
            {
                dat=UART_D_REG(uartch_1_2);    //获取数据,清接收中断位
    38ba:	1c3b      	adds	r3, r7, #0
    38bc:	3313      	adds	r3, #19
    38be:	68ba      	ldr	r2, [r7, #8]
    38c0:	79d2      	ldrb	r2, [r2, #7]
    38c2:	701a      	strb	r2, [r3, #0]
E:\work-201605\2012-2016 M0+1-20160318\M0+2-20160325\06-User\SD-KL-CD(V6.5)-20160501\02-Software\KL25-program\ch06-UART-20160501\KL25_UART\Debug/../05_Driver/uart/uart.c:308
                *fp= 1;  //接收成功
    38c4:	683b      	ldr	r3, [r7, #0]
    38c6:	2201      	movs	r2, #1
    38c8:	701a      	strb	r2, [r3, #0]
E:\work-201605\2012-2016 M0+1-20160318\M0+2-20160325\06-User\SD-KL-CD(V6.5)-20160501\02-Software\KL25-program\ch06-UART-20160501\KL25_UART\Debug/../05_Driver/uart/uart.c:309
                break;
    38ca:	e006      	b.n	38da <uart_re1+0x96>
E:\work-201605\2012-2016 M0+1-20160318\M0+2-20160325\06-User\SD-KL-CD(V6.5)-20160501\02-Software\KL25-program\ch06-UART-20160501\KL25_UART\Debug/../05_Driver/uart/uart.c:290
    {
        *fp=0;
        return 0;
    }

    for (t = 0; t < 0xFBBB; t++)//查询指定次数
    38cc:	697b      	ldr	r3, [r7, #20]
    38ce:	3301      	adds	r3, #1
    38d0:	617b      	str	r3, [r7, #20]
E:\work-201605\2012-2016 M0+1-20160318\M0+2-20160325\06-User\SD-KL-CD(V6.5)-20160501\02-Software\KL25-program\ch06-UART-20160501\KL25_UART\Debug/../05_Driver/uart/uart.c:290 (discriminator 1)
    38d2:	697a      	ldr	r2, [r7, #20]
    38d4:	4b0c      	ldr	r3, [pc, #48]	; (3908 <uart_re1+0xc4>)
    38d6:	429a      	cmp	r2, r3
    38d8:	d9d4      	bls.n	3884 <uart_re1+0x40>
E:\work-201605\2012-2016 M0+1-20160318\M0+2-20160325\06-User\SD-KL-CD(V6.5)-20160501\02-Software\KL25-program\ch06-UART-20160501\KL25_UART\Debug/../05_Driver/uart/uart.c:313
                *fp= 1;  //接收成功
                break;
            }
        }
    }//end for
    if(t >= 0xFBBB) 
    38da:	697a      	ldr	r2, [r7, #20]
    38dc:	4b0a      	ldr	r3, [pc, #40]	; (3908 <uart_re1+0xc4>)
    38de:	429a      	cmp	r2, r3
    38e0:	d906      	bls.n	38f0 <uart_re1+0xac>
E:\work-201605\2012-2016 M0+1-20160318\M0+2-20160325\06-User\SD-KL-CD(V6.5)-20160501\02-Software\KL25-program\ch06-UART-20160501\KL25_UART\Debug/../05_Driver/uart/uart.c:315
    {
        dat = 0xFF; 
    38e2:	1c3b      	adds	r3, r7, #0
    38e4:	3313      	adds	r3, #19
    38e6:	22ff      	movs	r2, #255	; 0xff
    38e8:	701a      	strb	r2, [r3, #0]
E:\work-201605\2012-2016 M0+1-20160318\M0+2-20160325\06-User\SD-KL-CD(V6.5)-20160501\02-Software\KL25-program\ch06-UART-20160501\KL25_UART\Debug/../05_Driver/uart/uart.c:316
        *fp = 0;    //未收到数据
    38ea:	683b      	ldr	r3, [r7, #0]
    38ec:	2200      	movs	r2, #0
    38ee:	701a      	strb	r2, [r3, #0]
E:\work-201605\2012-2016 M0+1-20160318\M0+2-20160325\06-User\SD-KL-CD(V6.5)-20160501\02-Software\KL25-program\ch06-UART-20160501\KL25_UART\Debug/../05_Driver/uart/uart.c:318
    }
    return dat;    //返回接收到的数据
    38f0:	1c3b      	adds	r3, r7, #0
    38f2:	3313      	adds	r3, #19
    38f4:	781b      	ldrb	r3, [r3, #0]
E:\work-201605\2012-2016 M0+1-20160318\M0+2-20160325\06-User\SD-KL-CD(V6.5)-20160501\02-Software\KL25-program\ch06-UART-20160501\KL25_UART\Debug/../05_Driver/uart/uart.c:319
}
    38f6:	1c18      	adds	r0, r3, #0
    38f8:	46bd      	mov	sp, r7
    38fa:	b006      	add	sp, #24
    38fc:	bd80      	pop	{r7, pc}
    38fe:	46c0      	nop			; (mov r8, r8)
    3900:	4006a000 	.word	0x4006a000
    3904:	000040c8 	.word	0x000040c8
    3908:	0000fbba 	.word	0x0000fbba

0000390c <uart_enable_re_int>:
uart_enable_re_int():
E:\work-201605\2012-2016 M0+1-20160318\M0+2-20160325\06-User\SD-KL-CD(V6.5)-20160501\02-Software\KL25-program\ch06-UART-20160501\KL25_UART\Debug/../05_Driver/uart/uart.c:358
//参数说明：uartNo: 串口号:UART_0、UART_1、UART_2 
//函数返回：无
//功能概要：开串口接收中断
//======================================================================
void uart_enable_re_int(uint_8 uartNo)
{
    390c:	b580      	push	{r7, lr}
    390e:	b084      	sub	sp, #16
    3910:	af00      	add	r7, sp, #0
    3912:	1c02      	adds	r2, r0, #0
    3914:	1dfb      	adds	r3, r7, #7
    3916:	701a      	strb	r2, [r3, #0]
E:\work-201605\2012-2016 M0+1-20160318\M0+2-20160325\06-User\SD-KL-CD(V6.5)-20160501\02-Software\KL25-program\ch06-UART-20160501\KL25_UART\Debug/../05_Driver/uart/uart.c:359
    UART0_MemMapPtr uartch_0=UART0_BASE_PTR; //获取UART0基地址
    3918:	4b18      	ldr	r3, [pc, #96]	; (397c <uart_enable_re_int+0x70>)
    391a:	60fb      	str	r3, [r7, #12]
E:\work-201605\2012-2016 M0+1-20160318\M0+2-20160325\06-User\SD-KL-CD(V6.5)-20160501\02-Software\KL25-program\ch06-UART-20160501\KL25_UART\Debug/../05_Driver/uart/uart.c:360
    UART_MemMapPtr uartch_1_2 = UART_ARR[uartNo-1]; //获取UART1或者2基地址
    391c:	1dfb      	adds	r3, r7, #7
    391e:	781b      	ldrb	r3, [r3, #0]
    3920:	1e5a      	subs	r2, r3, #1
    3922:	4b17      	ldr	r3, [pc, #92]	; (3980 <uart_enable_re_int+0x74>)
    3924:	0092      	lsls	r2, r2, #2
    3926:	58d3      	ldr	r3, [r2, r3]
    3928:	60bb      	str	r3, [r7, #8]
E:\work-201605\2012-2016 M0+1-20160318\M0+2-20160325\06-User\SD-KL-CD(V6.5)-20160501\02-Software\KL25-program\ch06-UART-20160501\KL25_UART\Debug/../05_Driver/uart/uart.c:363

    //判断传入串口号参数是否有误，有误直接退出
    if(!uart_is_uartNo(uartNo))
    392a:	1dfb      	adds	r3, r7, #7
    392c:	781b      	ldrb	r3, [r3, #0]
    392e:	1c18      	adds	r0, r3, #0
    3930:	f000 f89e 	bl	3a70 <uart_is_uartNo>
    3934:	1c03      	adds	r3, r0, #0
    3936:	2b00      	cmp	r3, #0
    3938:	d100      	bne.n	393c <uart_enable_re_int+0x30>
E:\work-201605\2012-2016 M0+1-20160318\M0+2-20160325\06-User\SD-KL-CD(V6.5)-20160501\02-Software\KL25-program\ch06-UART-20160501\KL25_UART\Debug/../05_Driver/uart/uart.c:365
    {
        return;
    393a:	e01c      	b.n	3976 <uart_enable_re_int+0x6a>
E:\work-201605\2012-2016 M0+1-20160318\M0+2-20160325\06-User\SD-KL-CD(V6.5)-20160501\02-Software\KL25-program\ch06-UART-20160501\KL25_UART\Debug/../05_Driver/uart/uart.c:368
    }

    if(0 == uartNo)
    393c:	1dfb      	adds	r3, r7, #7
    393e:	781b      	ldrb	r3, [r3, #0]
    3940:	2b00      	cmp	r3, #0
    3942:	d108      	bne.n	3956 <uart_enable_re_int+0x4a>
E:\work-201605\2012-2016 M0+1-20160318\M0+2-20160325\06-User\SD-KL-CD(V6.5)-20160501\02-Software\KL25-program\ch06-UART-20160501\KL25_UART\Debug/../05_Driver/uart/uart.c:369
        UART0_C2_REG(uartch_0) |= UART0_C2_RIE_MASK;    //开放UART接收中断
    3944:	68fb      	ldr	r3, [r7, #12]
    3946:	78db      	ldrb	r3, [r3, #3]
    3948:	b2db      	uxtb	r3, r3
    394a:	2220      	movs	r2, #32
    394c:	4313      	orrs	r3, r2
    394e:	b2da      	uxtb	r2, r3
    3950:	68fb      	ldr	r3, [r7, #12]
    3952:	70da      	strb	r2, [r3, #3]
    3954:	e007      	b.n	3966 <uart_enable_re_int+0x5a>
E:\work-201605\2012-2016 M0+1-20160318\M0+2-20160325\06-User\SD-KL-CD(V6.5)-20160501\02-Software\KL25-program\ch06-UART-20160501\KL25_UART\Debug/../05_Driver/uart/uart.c:371
    else 
        UART_C2_REG(uartch_1_2) |= UART_C2_RIE_MASK;    //开放UART接收中断
    3956:	68bb      	ldr	r3, [r7, #8]
    3958:	78db      	ldrb	r3, [r3, #3]
    395a:	b2db      	uxtb	r3, r3
    395c:	2220      	movs	r2, #32
    395e:	4313      	orrs	r3, r2
    3960:	b2da      	uxtb	r2, r3
    3962:	68bb      	ldr	r3, [r7, #8]
    3964:	70da      	strb	r2, [r3, #3]
E:\work-201605\2012-2016 M0+1-20160318\M0+2-20160325\06-User\SD-KL-CD(V6.5)-20160501\02-Software\KL25-program\ch06-UART-20160501\KL25_UART\Debug/../05_Driver/uart/uart.c:372
    NVIC_EnableIRQ(table_irq_uart[uartNo]);    //开中断控制器IRQ中断
    3966:	1dfb      	adds	r3, r7, #7
    3968:	781b      	ldrb	r3, [r3, #0]
    396a:	4a06      	ldr	r2, [pc, #24]	; (3984 <uart_enable_re_int+0x78>)
    396c:	5cd3      	ldrb	r3, [r2, r3]
    396e:	b25b      	sxtb	r3, r3
    3970:	1c18      	adds	r0, r3, #0
    3972:	f7ff fd6d 	bl	3450 <NVIC_EnableIRQ>
E:\work-201605\2012-2016 M0+1-20160318\M0+2-20160325\06-User\SD-KL-CD(V6.5)-20160501\02-Software\KL25-program\ch06-UART-20160501\KL25_UART\Debug/../05_Driver/uart/uart.c:373
}
    3976:	46bd      	mov	sp, r7
    3978:	b004      	add	sp, #16
    397a:	bd80      	pop	{r7, pc}
    397c:	4006a000 	.word	0x4006a000
    3980:	000040c8 	.word	0x000040c8
    3984:	1ffff000 	.word	0x1ffff000

00003988 <uart_get_re_int>:
uart_get_re_int():
E:\work-201605\2012-2016 M0+1-20160318\M0+2-20160325\06-User\SD-KL-CD(V6.5)-20160501\02-Software\KL25-program\ch06-UART-20160501\KL25_UART\Debug/../05_Driver/uart/uart.c:406
//参数说明：uartNo: 串口号 :UART_0、UART_1、UART_2
//函数返回：接收中断标志 1=有接收中断;0=无接收中断
//功能概要：获取串口接收中断标志,同时禁用发送中断
//======================================================================
uint_8 uart_get_re_int(uint_8 uartNo)
{
    3988:	b580      	push	{r7, lr}
    398a:	b086      	sub	sp, #24
    398c:	af00      	add	r7, sp, #0
    398e:	1c02      	adds	r2, r0, #0
    3990:	1dfb      	adds	r3, r7, #7
    3992:	701a      	strb	r2, [r3, #0]
E:\work-201605\2012-2016 M0+1-20160318\M0+2-20160325\06-User\SD-KL-CD(V6.5)-20160501\02-Software\KL25-program\ch06-UART-20160501\KL25_UART\Debug/../05_Driver/uart/uart.c:408
    uint_8 flag;
    UART0_MemMapPtr uartch_0=UART0_BASE_PTR; //获取UART0基地址
    3994:	4b34      	ldr	r3, [pc, #208]	; (3a68 <uart_get_re_int+0xe0>)
    3996:	617b      	str	r3, [r7, #20]
E:\work-201605\2012-2016 M0+1-20160318\M0+2-20160325\06-User\SD-KL-CD(V6.5)-20160501\02-Software\KL25-program\ch06-UART-20160501\KL25_UART\Debug/../05_Driver/uart/uart.c:409
    UART_MemMapPtr uartch_1_2 = UART_ARR[uartNo-1]; //获取UART1或者2基地址
    3998:	1dfb      	adds	r3, r7, #7
    399a:	781b      	ldrb	r3, [r3, #0]
    399c:	1e5a      	subs	r2, r3, #1
    399e:	4b33      	ldr	r3, [pc, #204]	; (3a6c <uart_get_re_int+0xe4>)
    39a0:	0092      	lsls	r2, r2, #2
    39a2:	58d3      	ldr	r3, [r2, r3]
    39a4:	613b      	str	r3, [r7, #16]
E:\work-201605\2012-2016 M0+1-20160318\M0+2-20160325\06-User\SD-KL-CD(V6.5)-20160501\02-Software\KL25-program\ch06-UART-20160501\KL25_UART\Debug/../05_Driver/uart/uart.c:412

    //判断传入串口号参数是否有误，有误直接退出
    if(!uart_is_uartNo(uartNo))
    39a6:	1dfb      	adds	r3, r7, #7
    39a8:	781b      	ldrb	r3, [r3, #0]
    39aa:	1c18      	adds	r0, r3, #0
    39ac:	f000 f860 	bl	3a70 <uart_is_uartNo>
    39b0:	1c03      	adds	r3, r0, #0
    39b2:	2b00      	cmp	r3, #0
    39b4:	d101      	bne.n	39ba <uart_get_re_int+0x32>
E:\work-201605\2012-2016 M0+1-20160318\M0+2-20160325\06-User\SD-KL-CD(V6.5)-20160501\02-Software\KL25-program\ch06-UART-20160501\KL25_UART\Debug/../05_Driver/uart/uart.c:414
    {
        return 0;
    39b6:	2300      	movs	r3, #0
    39b8:	e052      	b.n	3a60 <uart_get_re_int+0xd8>
E:\work-201605\2012-2016 M0+1-20160318\M0+2-20160325\06-User\SD-KL-CD(V6.5)-20160501\02-Software\KL25-program\ch06-UART-20160501\KL25_UART\Debug/../05_Driver/uart/uart.c:417
    }

    if(0==uartNo)
    39ba:	1dfb      	adds	r3, r7, #7
    39bc:	781b      	ldrb	r3, [r3, #0]
    39be:	2b00      	cmp	r3, #0
    39c0:	d127      	bne.n	3a12 <uart_get_re_int+0x8a>
E:\work-201605\2012-2016 M0+1-20160318\M0+2-20160325\06-User\SD-KL-CD(V6.5)-20160501\02-Software\KL25-program\ch06-UART-20160501\KL25_UART\Debug/../05_Driver/uart/uart.c:420
    {
        //禁用串口发送中断，防止误中断
        UART0_C2_REG(uartch_0) &= (~UART0_C2_TIE_MASK);
    39c2:	697b      	ldr	r3, [r7, #20]
    39c4:	78db      	ldrb	r3, [r3, #3]
    39c6:	b2da      	uxtb	r2, r3
    39c8:	237f      	movs	r3, #127	; 0x7f
    39ca:	4013      	ands	r3, r2
    39cc:	b2da      	uxtb	r2, r3
    39ce:	697b      	ldr	r3, [r7, #20]
    39d0:	70da      	strb	r2, [r3, #3]
E:\work-201605\2012-2016 M0+1-20160318\M0+2-20160325\06-User\SD-KL-CD(V6.5)-20160501\02-Software\KL25-program\ch06-UART-20160501\KL25_UART\Debug/../05_Driver/uart/uart.c:422
        //获取接收中断标志，需同时判断RDRF和RIE
        flag= UART0_S1_REG(uartch_0) & (UART0_S1_RDRF_MASK);
    39d2:	697b      	ldr	r3, [r7, #20]
    39d4:	791b      	ldrb	r3, [r3, #4]
    39d6:	b2d9      	uxtb	r1, r3
    39d8:	1c3b      	adds	r3, r7, #0
    39da:	330f      	adds	r3, #15
    39dc:	2220      	movs	r2, #32
    39de:	400a      	ands	r2, r1
    39e0:	701a      	strb	r2, [r3, #0]
E:\work-201605\2012-2016 M0+1-20160318\M0+2-20160325\06-User\SD-KL-CD(V6.5)-20160501\02-Software\KL25-program\ch06-UART-20160501\KL25_UART\Debug/../05_Driver/uart/uart.c:423
        return(BGET(UART0_S1_RDRF_SHIFT,flag)
    39e2:	1c3b      	adds	r3, r7, #0
    39e4:	330f      	adds	r3, #15
    39e6:	781b      	ldrb	r3, [r3, #0]
    39e8:	095b      	lsrs	r3, r3, #5
    39ea:	b2db      	uxtb	r3, r3
    39ec:	b2db      	uxtb	r3, r3
    39ee:	1c1a      	adds	r2, r3, #0
    39f0:	2301      	movs	r3, #1
    39f2:	4013      	ands	r3, r2
    39f4:	b2db      	uxtb	r3, r3
E:\work-201605\2012-2016 M0+1-20160318\M0+2-20160325\06-User\SD-KL-CD(V6.5)-20160501\02-Software\KL25-program\ch06-UART-20160501\KL25_UART\Debug/../05_Driver/uart/uart.c:424
                & BGET(UART0_C2_RIE_SHIFT,UART0_C2_REG(uartch_0)));
    39f6:	697a      	ldr	r2, [r7, #20]
    39f8:	78d2      	ldrb	r2, [r2, #3]
    39fa:	b2d2      	uxtb	r2, r2
E:\work-201605\2012-2016 M0+1-20160318\M0+2-20160325\06-User\SD-KL-CD(V6.5)-20160501\02-Software\KL25-program\ch06-UART-20160501\KL25_UART\Debug/../05_Driver/uart/uart.c:423
    {
        //禁用串口发送中断，防止误中断
        UART0_C2_REG(uartch_0) &= (~UART0_C2_TIE_MASK);
        //获取接收中断标志，需同时判断RDRF和RIE
        flag= UART0_S1_REG(uartch_0) & (UART0_S1_RDRF_MASK);
        return(BGET(UART0_S1_RDRF_SHIFT,flag)
    39fc:	0952      	lsrs	r2, r2, #5
    39fe:	b2d2      	uxtb	r2, r2
    3a00:	b2d2      	uxtb	r2, r2
    3a02:	1c11      	adds	r1, r2, #0
    3a04:	2201      	movs	r2, #1
    3a06:	400a      	ands	r2, r1
    3a08:	b2d2      	uxtb	r2, r2
    3a0a:	4013      	ands	r3, r2
    3a0c:	b2db      	uxtb	r3, r3
    3a0e:	b2db      	uxtb	r3, r3
    3a10:	e026      	b.n	3a60 <uart_get_re_int+0xd8>
E:\work-201605\2012-2016 M0+1-20160318\M0+2-20160325\06-User\SD-KL-CD(V6.5)-20160501\02-Software\KL25-program\ch06-UART-20160501\KL25_UART\Debug/../05_Driver/uart/uart.c:429
                & BGET(UART0_C2_RIE_SHIFT,UART0_C2_REG(uartch_0)));
    }
    else
    {
        //禁用串口发送中断，防止误中断
        UART_C2_REG(uartch_1_2) &= (~UART_C2_TIE_MASK);
    3a12:	693b      	ldr	r3, [r7, #16]
    3a14:	78db      	ldrb	r3, [r3, #3]
    3a16:	b2da      	uxtb	r2, r3
    3a18:	237f      	movs	r3, #127	; 0x7f
    3a1a:	4013      	ands	r3, r2
    3a1c:	b2da      	uxtb	r2, r3
    3a1e:	693b      	ldr	r3, [r7, #16]
    3a20:	70da      	strb	r2, [r3, #3]
E:\work-201605\2012-2016 M0+1-20160318\M0+2-20160325\06-User\SD-KL-CD(V6.5)-20160501\02-Software\KL25-program\ch06-UART-20160501\KL25_UART\Debug/../05_Driver/uart/uart.c:431
        //获取接收中断标志，需同时判断RDRF和RIE
        flag= UART_S1_REG(uartch_1_2) & (UART_S1_RDRF_MASK);
    3a22:	693b      	ldr	r3, [r7, #16]
    3a24:	791b      	ldrb	r3, [r3, #4]
    3a26:	b2d9      	uxtb	r1, r3
    3a28:	1c3b      	adds	r3, r7, #0
    3a2a:	330f      	adds	r3, #15
    3a2c:	2220      	movs	r2, #32
    3a2e:	400a      	ands	r2, r1
    3a30:	701a      	strb	r2, [r3, #0]
E:\work-201605\2012-2016 M0+1-20160318\M0+2-20160325\06-User\SD-KL-CD(V6.5)-20160501\02-Software\KL25-program\ch06-UART-20160501\KL25_UART\Debug/../05_Driver/uart/uart.c:432
        return(BGET(UART_S1_RDRF_SHIFT,flag)
    3a32:	1c3b      	adds	r3, r7, #0
    3a34:	330f      	adds	r3, #15
    3a36:	781b      	ldrb	r3, [r3, #0]
    3a38:	095b      	lsrs	r3, r3, #5
    3a3a:	b2db      	uxtb	r3, r3
    3a3c:	b2db      	uxtb	r3, r3
    3a3e:	1c1a      	adds	r2, r3, #0
    3a40:	2301      	movs	r3, #1
    3a42:	4013      	ands	r3, r2
    3a44:	b2db      	uxtb	r3, r3
E:\work-201605\2012-2016 M0+1-20160318\M0+2-20160325\06-User\SD-KL-CD(V6.5)-20160501\02-Software\KL25-program\ch06-UART-20160501\KL25_UART\Debug/../05_Driver/uart/uart.c:433
                & BGET(UART_C2_RIE_SHIFT,UART_C2_REG(uartch_1_2)));
    3a46:	693a      	ldr	r2, [r7, #16]
    3a48:	78d2      	ldrb	r2, [r2, #3]
    3a4a:	b2d2      	uxtb	r2, r2
E:\work-201605\2012-2016 M0+1-20160318\M0+2-20160325\06-User\SD-KL-CD(V6.5)-20160501\02-Software\KL25-program\ch06-UART-20160501\KL25_UART\Debug/../05_Driver/uart/uart.c:432
    {
        //禁用串口发送中断，防止误中断
        UART_C2_REG(uartch_1_2) &= (~UART_C2_TIE_MASK);
        //获取接收中断标志，需同时判断RDRF和RIE
        flag= UART_S1_REG(uartch_1_2) & (UART_S1_RDRF_MASK);
        return(BGET(UART_S1_RDRF_SHIFT,flag)
    3a4c:	0952      	lsrs	r2, r2, #5
    3a4e:	b2d2      	uxtb	r2, r2
    3a50:	b2d2      	uxtb	r2, r2
    3a52:	1c11      	adds	r1, r2, #0
    3a54:	2201      	movs	r2, #1
    3a56:	400a      	ands	r2, r1
    3a58:	b2d2      	uxtb	r2, r2
    3a5a:	4013      	ands	r3, r2
    3a5c:	b2db      	uxtb	r3, r3
    3a5e:	b2db      	uxtb	r3, r3
E:\work-201605\2012-2016 M0+1-20160318\M0+2-20160325\06-User\SD-KL-CD(V6.5)-20160501\02-Software\KL25-program\ch06-UART-20160501\KL25_UART\Debug/../05_Driver/uart/uart.c:435
                & BGET(UART_C2_RIE_SHIFT,UART_C2_REG(uartch_1_2)));
    }
}
    3a60:	1c18      	adds	r0, r3, #0
    3a62:	46bd      	mov	sp, r7
    3a64:	b006      	add	sp, #24
    3a66:	bd80      	pop	{r7, pc}
    3a68:	4006a000 	.word	0x4006a000
    3a6c:	000040c8 	.word	0x000040c8

00003a70 <uart_is_uartNo>:
uart_is_uartNo():
E:\work-201605\2012-2016 M0+1-20160318\M0+2-20160325\06-User\SD-KL-CD(V6.5)-20160501\02-Software\KL25-program\ch06-UART-20160501\KL25_UART\Debug/../05_Driver/uart/uart.c:445
//函数返回：1:串口号在合理范围内，0：串口号不合理
//参数说明：串口号uartNo  :UART_0、UART_1、UART_2
//功能概要：为程序健壮性而判断uartNo是否在串口数字范围内
//=====================================================================
uint_8 uart_is_uartNo(uint_8 uartNo)
{
    3a70:	b580      	push	{r7, lr}
    3a72:	b082      	sub	sp, #8
    3a74:	af00      	add	r7, sp, #0
    3a76:	1c02      	adds	r2, r0, #0
    3a78:	1dfb      	adds	r3, r7, #7
    3a7a:	701a      	strb	r2, [r3, #0]
E:\work-201605\2012-2016 M0+1-20160318\M0+2-20160325\06-User\SD-KL-CD(V6.5)-20160501\02-Software\KL25-program\ch06-UART-20160501\KL25_UART\Debug/../05_Driver/uart/uart.c:446
    if(uartNo < UART_0 || uartNo > UART_2)
    3a7c:	1dfb      	adds	r3, r7, #7
    3a7e:	781b      	ldrb	r3, [r3, #0]
    3a80:	2b02      	cmp	r3, #2
    3a82:	d901      	bls.n	3a88 <uart_is_uartNo+0x18>
E:\work-201605\2012-2016 M0+1-20160318\M0+2-20160325\06-User\SD-KL-CD(V6.5)-20160501\02-Software\KL25-program\ch06-UART-20160501\KL25_UART\Debug/../05_Driver/uart/uart.c:447
        return 0;
    3a84:	2300      	movs	r3, #0
    3a86:	e000      	b.n	3a8a <uart_is_uartNo+0x1a>
E:\work-201605\2012-2016 M0+1-20160318\M0+2-20160325\06-User\SD-KL-CD(V6.5)-20160501\02-Software\KL25-program\ch06-UART-20160501\KL25_UART\Debug/../05_Driver/uart/uart.c:449
    else
        return 1;
    3a88:	2301      	movs	r3, #1
E:\work-201605\2012-2016 M0+1-20160318\M0+2-20160325\06-User\SD-KL-CD(V6.5)-20160501\02-Software\KL25-program\ch06-UART-20160501\KL25_UART\Debug/../05_Driver/uart/uart.c:450
}
    3a8a:	1c18      	adds	r0, r3, #0
    3a8c:	46bd      	mov	sp, r7
    3a8e:	b002      	add	sp, #8
    3a90:	bd80      	pop	{r7, pc}
    3a92:	46c0      	nop			; (mov r8, r8)

00003a94 <gpio_init>:
gpio_init():
E:\work-201605\2012-2016 M0+1-20160318\M0+2-20160325\06-User\SD-KL-CD(V6.5)-20160501\02-Software\KL25-program\ch06-UART-20160501\KL25_UART\Debug/../05_Driver/gpio/gpio.c:27
//          state：端口引脚初始状态（0=低电平，1=高电平）
//功能概要：初始化指定端口引脚作为GPIO引脚功能，并定义为输入或输出，若是输出，
//          还指定初始状态是低电平或高电平
//=====================================================================
void gpio_init(uint_16 port_pin, uint_8 dir, uint_8 state)
{
    3a94:	b580      	push	{r7, lr}
    3a96:	b086      	sub	sp, #24
    3a98:	af00      	add	r7, sp, #0
    3a9a:	1dbb      	adds	r3, r7, #6
    3a9c:	8018      	strh	r0, [r3, #0]
    3a9e:	1d7b      	adds	r3, r7, #5
    3aa0:	7019      	strb	r1, [r3, #0]
    3aa2:	1d3b      	adds	r3, r7, #4
    3aa4:	701a      	strb	r2, [r3, #0]
E:\work-201605\2012-2016 M0+1-20160318\M0+2-20160325\06-User\SD-KL-CD(V6.5)-20160501\02-Software\KL25-program\ch06-UART-20160501\KL25_UART\Debug/../05_Driver/gpio/gpio.c:33
    //局部变量声明
    PORT_MemMapPtr port_ptr;    //声明port_ptr为PORT结构体类型指针 
    GPIO_MemMapPtr gpio_ptr;    //声明port_ptr为GPIO结构体类型指针
    uint_8 port,pin;            //声明端口port、引脚pin变量
    //根据带入参数port_pin，解析出端口与引脚分别赋给port,pin
    gpio_get_port_pin(port_pin , &port , &pin);
    3aa6:	1dbb      	adds	r3, r7, #6
    3aa8:	8819      	ldrh	r1, [r3, #0]
    3aaa:	1c3a      	adds	r2, r7, #0
    3aac:	320f      	adds	r2, #15
    3aae:	1c3b      	adds	r3, r7, #0
    3ab0:	330e      	adds	r3, #14
    3ab2:	1c08      	adds	r0, r1, #0
    3ab4:	1c11      	adds	r1, r2, #0
    3ab6:	1c1a      	adds	r2, r3, #0
    3ab8:	f000 f8ca 	bl	3c50 <gpio_get_port_pin>
E:\work-201605\2012-2016 M0+1-20160318\M0+2-20160325\06-User\SD-KL-CD(V6.5)-20160501\02-Software\KL25-program\ch06-UART-20160501\KL25_UART\Debug/../05_Driver/gpio/gpio.c:35
    //根据port，给局部变量port_ptr、gpio_ptr赋值（获得两个基地址）
    port_ptr = PORT_ARR[port];  //获得PORT模块相应口基地址
    3abc:	1c3b      	adds	r3, r7, #0
    3abe:	330f      	adds	r3, #15
    3ac0:	781b      	ldrb	r3, [r3, #0]
    3ac2:	1c1a      	adds	r2, r3, #0
    3ac4:	4b2a      	ldr	r3, [pc, #168]	; (3b70 <gpio_init+0xdc>)
    3ac6:	0092      	lsls	r2, r2, #2
    3ac8:	58d3      	ldr	r3, [r2, r3]
    3aca:	617b      	str	r3, [r7, #20]
E:\work-201605\2012-2016 M0+1-20160318\M0+2-20160325\06-User\SD-KL-CD(V6.5)-20160501\02-Software\KL25-program\ch06-UART-20160501\KL25_UART\Debug/../05_Driver/gpio/gpio.c:36
    gpio_ptr = GPIO_ARR[port];  //获得GPIO模块相应口基地址
    3acc:	1c3b      	adds	r3, r7, #0
    3ace:	330f      	adds	r3, #15
    3ad0:	781b      	ldrb	r3, [r3, #0]
    3ad2:	1c1a      	adds	r2, r3, #0
    3ad4:	4b27      	ldr	r3, [pc, #156]	; (3b74 <gpio_init+0xe0>)
    3ad6:	0092      	lsls	r2, r2, #2
    3ad8:	58d3      	ldr	r3, [r2, r3]
    3ada:	613b      	str	r3, [r7, #16]
E:\work-201605\2012-2016 M0+1-20160318\M0+2-20160325\06-User\SD-KL-CD(V6.5)-20160501\02-Software\KL25-program\ch06-UART-20160501\KL25_UART\Debug/../05_Driver/gpio/gpio.c:39

    //设定相应端口的相应引脚功能为GPIO（即令引脚控制寄存器的MUX=0b001）
    PORT_PCR_REG(port_ptr, pin) &= ~PORT_PCR_MUX_MASK; //置D10-D8=000
    3adc:	1c3b      	adds	r3, r7, #0
    3ade:	330e      	adds	r3, #14
    3ae0:	781b      	ldrb	r3, [r3, #0]
    3ae2:	1c1a      	adds	r2, r3, #0
    3ae4:	1c3b      	adds	r3, r7, #0
    3ae6:	330e      	adds	r3, #14
    3ae8:	781b      	ldrb	r3, [r3, #0]
    3aea:	1c19      	adds	r1, r3, #0
    3aec:	697b      	ldr	r3, [r7, #20]
    3aee:	0089      	lsls	r1, r1, #2
    3af0:	58c9      	ldr	r1, [r1, r3]
    3af2:	4b21      	ldr	r3, [pc, #132]	; (3b78 <gpio_init+0xe4>)
    3af4:	4019      	ands	r1, r3
    3af6:	697b      	ldr	r3, [r7, #20]
    3af8:	0092      	lsls	r2, r2, #2
    3afa:	50d1      	str	r1, [r2, r3]
E:\work-201605\2012-2016 M0+1-20160318\M0+2-20160325\06-User\SD-KL-CD(V6.5)-20160501\02-Software\KL25-program\ch06-UART-20160501\KL25_UART\Debug/../05_Driver/gpio/gpio.c:40
    PORT_PCR_REG(port_ptr, pin) |= PORT_PCR_MUX(1);    //置D10-D8=001
    3afc:	1c3b      	adds	r3, r7, #0
    3afe:	330e      	adds	r3, #14
    3b00:	781b      	ldrb	r3, [r3, #0]
    3b02:	1c1a      	adds	r2, r3, #0
    3b04:	1c3b      	adds	r3, r7, #0
    3b06:	330e      	adds	r3, #14
    3b08:	781b      	ldrb	r3, [r3, #0]
    3b0a:	1c19      	adds	r1, r3, #0
    3b0c:	697b      	ldr	r3, [r7, #20]
    3b0e:	0089      	lsls	r1, r1, #2
    3b10:	58cb      	ldr	r3, [r1, r3]
    3b12:	2180      	movs	r1, #128	; 0x80
    3b14:	0049      	lsls	r1, r1, #1
    3b16:	4319      	orrs	r1, r3
    3b18:	697b      	ldr	r3, [r7, #20]
    3b1a:	0092      	lsls	r2, r2, #2
    3b1c:	50d1      	str	r1, [r2, r3]
E:\work-201605\2012-2016 M0+1-20160318\M0+2-20160325\06-User\SD-KL-CD(V6.5)-20160501\02-Software\KL25-program\ch06-UART-20160501\KL25_UART\Debug/../05_Driver/gpio/gpio.c:43

    //根据带入参数dir，决定引脚为输出还是输入
    if (1 == dir)   //希望为输出
    3b1e:	1d7b      	adds	r3, r7, #5
    3b20:	781b      	ldrb	r3, [r3, #0]
    3b22:	2b01      	cmp	r3, #1
    3b24:	d114      	bne.n	3b50 <gpio_init+0xbc>
E:\work-201605\2012-2016 M0+1-20160318\M0+2-20160325\06-User\SD-KL-CD(V6.5)-20160501\02-Software\KL25-program\ch06-UART-20160501\KL25_UART\Debug/../05_Driver/gpio/gpio.c:45
    {
         BSET(pin,GPIO_PDDR_REG(gpio_ptr));//数据方向寄存器的pin位=1，定义为输出
    3b26:	693b      	ldr	r3, [r7, #16]
    3b28:	695a      	ldr	r2, [r3, #20]
    3b2a:	1c3b      	adds	r3, r7, #0
    3b2c:	330e      	adds	r3, #14
    3b2e:	781b      	ldrb	r3, [r3, #0]
    3b30:	2101      	movs	r1, #1
    3b32:	1c08      	adds	r0, r1, #0
    3b34:	4098      	lsls	r0, r3
    3b36:	1c03      	adds	r3, r0, #0
    3b38:	431a      	orrs	r2, r3
    3b3a:	693b      	ldr	r3, [r7, #16]
    3b3c:	615a      	str	r2, [r3, #20]
E:\work-201605\2012-2016 M0+1-20160318\M0+2-20160325\06-User\SD-KL-CD(V6.5)-20160501\02-Software\KL25-program\ch06-UART-20160501\KL25_UART\Debug/../05_Driver/gpio/gpio.c:46
         gpio_set(port_pin, state);  //调用gpio_set函数，设定引脚初始状态
    3b3e:	1dbb      	adds	r3, r7, #6
    3b40:	881a      	ldrh	r2, [r3, #0]
    3b42:	1d3b      	adds	r3, r7, #4
    3b44:	781b      	ldrb	r3, [r3, #0]
    3b46:	1c10      	adds	r0, r2, #0
    3b48:	1c19      	adds	r1, r3, #0
    3b4a:	f000 f817 	bl	3b7c <gpio_set>
    3b4e:	e00c      	b.n	3b6a <gpio_init+0xd6>
E:\work-201605\2012-2016 M0+1-20160318\M0+2-20160325\06-User\SD-KL-CD(V6.5)-20160501\02-Software\KL25-program\ch06-UART-20160501\KL25_UART\Debug/../05_Driver/gpio/gpio.c:50
    }
    else           //希望为输入
    {
        BCLR(pin,GPIO_PDDR_REG(gpio_ptr));//数据方向寄存器的pin位=0，定义为输入
    3b50:	693b      	ldr	r3, [r7, #16]
    3b52:	695b      	ldr	r3, [r3, #20]
    3b54:	1c3a      	adds	r2, r7, #0
    3b56:	320e      	adds	r2, #14
    3b58:	7812      	ldrb	r2, [r2, #0]
    3b5a:	2101      	movs	r1, #1
    3b5c:	1c08      	adds	r0, r1, #0
    3b5e:	4090      	lsls	r0, r2
    3b60:	1c02      	adds	r2, r0, #0
    3b62:	43d2      	mvns	r2, r2
    3b64:	401a      	ands	r2, r3
    3b66:	693b      	ldr	r3, [r7, #16]
    3b68:	615a      	str	r2, [r3, #20]
E:\work-201605\2012-2016 M0+1-20160318\M0+2-20160325\06-User\SD-KL-CD(V6.5)-20160501\02-Software\KL25-program\ch06-UART-20160501\KL25_UART\Debug/../05_Driver/gpio/gpio.c:52
    }
}
    3b6a:	46bd      	mov	sp, r7
    3b6c:	b006      	add	sp, #24
    3b6e:	bd80      	pop	{r7, pc}
    3b70:	000040d0 	.word	0x000040d0
    3b74:	000040e4 	.word	0x000040e4
    3b78:	fffff8ff 	.word	0xfffff8ff

00003b7c <gpio_set>:
gpio_set():
E:\work-201605\2012-2016 M0+1-20160318\M0+2-20160325\06-User\SD-KL-CD(V6.5)-20160501\02-Software\KL25-program\ch06-UART-20160501\KL25_UART\Debug/../05_Driver/gpio/gpio.c:62
//参数说明：port_pin：端口号|引脚号（如：(PTB_NUM)|(9) 表示为B口9号脚）
//       state：引脚初始状态（0=低电平，1=高电平）
//功能概要：设定引脚状态为低电平或高电平
//=====================================================================
void gpio_set(uint_16 port_pin, uint_8 state)
{
    3b7c:	b580      	push	{r7, lr}
    3b7e:	b084      	sub	sp, #16
    3b80:	af00      	add	r7, sp, #0
    3b82:	1c0a      	adds	r2, r1, #0
    3b84:	1dbb      	adds	r3, r7, #6
    3b86:	1c01      	adds	r1, r0, #0
    3b88:	8019      	strh	r1, [r3, #0]
    3b8a:	1d7b      	adds	r3, r7, #5
    3b8c:	701a      	strb	r2, [r3, #0]
E:\work-201605\2012-2016 M0+1-20160318\M0+2-20160325\06-User\SD-KL-CD(V6.5)-20160501\02-Software\KL25-program\ch06-UART-20160501\KL25_UART\Debug/../05_Driver/gpio/gpio.c:67
    //局部变量声明
    GPIO_MemMapPtr  gpio_ptr;  //声明port_ptr为GPIO结构体类型指针（首地址）
    uint_8 port,pin;           //声明端口port、引脚pin变量
    //根据带入参数port_pin，解析出端口与引脚分别赋给port,pin
    gpio_get_port_pin(port_pin , &port , &pin);
    3b8e:	1dbb      	adds	r3, r7, #6
    3b90:	8819      	ldrh	r1, [r3, #0]
    3b92:	1c3a      	adds	r2, r7, #0
    3b94:	320b      	adds	r2, #11
    3b96:	1c3b      	adds	r3, r7, #0
    3b98:	330a      	adds	r3, #10
    3b9a:	1c08      	adds	r0, r1, #0
    3b9c:	1c11      	adds	r1, r2, #0
    3b9e:	1c1a      	adds	r2, r3, #0
    3ba0:	f000 f856 	bl	3c50 <gpio_get_port_pin>
E:\work-201605\2012-2016 M0+1-20160318\M0+2-20160325\06-User\SD-KL-CD(V6.5)-20160501\02-Software\KL25-program\ch06-UART-20160501\KL25_UART\Debug/../05_Driver/gpio/gpio.c:70

    //根据port，给局部变量gpio_ptr赋值（GPIO基地址）
    gpio_ptr = GPIO_ARR[port]; 
    3ba4:	1c3b      	adds	r3, r7, #0
    3ba6:	330b      	adds	r3, #11
    3ba8:	781b      	ldrb	r3, [r3, #0]
    3baa:	1c1a      	adds	r2, r3, #0
    3bac:	4b12      	ldr	r3, [pc, #72]	; (3bf8 <gpio_set+0x7c>)
    3bae:	0092      	lsls	r2, r2, #2
    3bb0:	58d3      	ldr	r3, [r2, r3]
    3bb2:	60fb      	str	r3, [r7, #12]
E:\work-201605\2012-2016 M0+1-20160318\M0+2-20160325\06-User\SD-KL-CD(V6.5)-20160501\02-Software\KL25-program\ch06-UART-20160501\KL25_UART\Debug/../05_Driver/gpio/gpio.c:73

    //根据带入参数state，决定引脚为输出1还是0
    if (1==state)
    3bb4:	1d7b      	adds	r3, r7, #5
    3bb6:	781b      	ldrb	r3, [r3, #0]
    3bb8:	2b01      	cmp	r3, #1
    3bba:	d10c      	bne.n	3bd6 <gpio_set+0x5a>
E:\work-201605\2012-2016 M0+1-20160318\M0+2-20160325\06-User\SD-KL-CD(V6.5)-20160501\02-Software\KL25-program\ch06-UART-20160501\KL25_UART\Debug/../05_Driver/gpio/gpio.c:75
    {
        BSET(pin,GPIO_PDOR_REG(gpio_ptr));
    3bbc:	68fb      	ldr	r3, [r7, #12]
    3bbe:	681a      	ldr	r2, [r3, #0]
    3bc0:	1c3b      	adds	r3, r7, #0
    3bc2:	330a      	adds	r3, #10
    3bc4:	781b      	ldrb	r3, [r3, #0]
    3bc6:	2101      	movs	r1, #1
    3bc8:	1c08      	adds	r0, r1, #0
    3bca:	4098      	lsls	r0, r3
    3bcc:	1c03      	adds	r3, r0, #0
    3bce:	431a      	orrs	r2, r3
    3bd0:	68fb      	ldr	r3, [r7, #12]
    3bd2:	601a      	str	r2, [r3, #0]
    3bd4:	e00c      	b.n	3bf0 <gpio_set+0x74>
E:\work-201605\2012-2016 M0+1-20160318\M0+2-20160325\06-User\SD-KL-CD(V6.5)-20160501\02-Software\KL25-program\ch06-UART-20160501\KL25_UART\Debug/../05_Driver/gpio/gpio.c:79
    }
    else
    {
        BCLR(pin,GPIO_PDOR_REG(gpio_ptr));
    3bd6:	68fb      	ldr	r3, [r7, #12]
    3bd8:	681b      	ldr	r3, [r3, #0]
    3bda:	1c3a      	adds	r2, r7, #0
    3bdc:	320a      	adds	r2, #10
    3bde:	7812      	ldrb	r2, [r2, #0]
    3be0:	2101      	movs	r1, #1
    3be2:	1c08      	adds	r0, r1, #0
    3be4:	4090      	lsls	r0, r2
    3be6:	1c02      	adds	r2, r0, #0
    3be8:	43d2      	mvns	r2, r2
    3bea:	401a      	ands	r2, r3
    3bec:	68fb      	ldr	r3, [r7, #12]
    3bee:	601a      	str	r2, [r3, #0]
E:\work-201605\2012-2016 M0+1-20160318\M0+2-20160325\06-User\SD-KL-CD(V6.5)-20160501\02-Software\KL25-program\ch06-UART-20160501\KL25_UART\Debug/../05_Driver/gpio/gpio.c:81
    }
}
    3bf0:	46bd      	mov	sp, r7
    3bf2:	b004      	add	sp, #16
    3bf4:	bd80      	pop	{r7, pc}
    3bf6:	46c0      	nop			; (mov r8, r8)
    3bf8:	000040e4 	.word	0x000040e4

00003bfc <gpio_reverse>:
gpio_reverse():
E:\work-201605\2012-2016 M0+1-20160318\M0+2-20160325\06-User\SD-KL-CD(V6.5)-20160501\02-Software\KL25-program\ch06-UART-20160501\KL25_UART\Debug/../05_Driver/gpio/gpio.c:111
//函数返回：无
//参数说明：port_pin：端口号|引脚号（如：(PTB_NUM)|(9) 表示为B口9号脚）
//功能概要：反转指定引脚输出状态。
//=====================================================================
void gpio_reverse(uint_16 port_pin)
{
    3bfc:	b580      	push	{r7, lr}
    3bfe:	b084      	sub	sp, #16
    3c00:	af00      	add	r7, sp, #0
    3c02:	1c02      	adds	r2, r0, #0
    3c04:	1dbb      	adds	r3, r7, #6
    3c06:	801a      	strh	r2, [r3, #0]
E:\work-201605\2012-2016 M0+1-20160318\M0+2-20160325\06-User\SD-KL-CD(V6.5)-20160501\02-Software\KL25-program\ch06-UART-20160501\KL25_UART\Debug/../05_Driver/gpio/gpio.c:116
    //局部变量声明
    GPIO_MemMapPtr  gpio_ptr;  //声明port_ptr为GPIO结构体类型指针（首地址）
    uint_8 port,pin;           //声明端口port、引脚pin变量
    //根据带入参数port_pin，解析出端口与引脚分别赋给port,pin
    gpio_get_port_pin(port_pin , &port , &pin);
    3c08:	1dbb      	adds	r3, r7, #6
    3c0a:	8819      	ldrh	r1, [r3, #0]
    3c0c:	1c3a      	adds	r2, r7, #0
    3c0e:	320b      	adds	r2, #11
    3c10:	1c3b      	adds	r3, r7, #0
    3c12:	330a      	adds	r3, #10
    3c14:	1c08      	adds	r0, r1, #0
    3c16:	1c11      	adds	r1, r2, #0
    3c18:	1c1a      	adds	r2, r3, #0
    3c1a:	f000 f819 	bl	3c50 <gpio_get_port_pin>
E:\work-201605\2012-2016 M0+1-20160318\M0+2-20160325\06-User\SD-KL-CD(V6.5)-20160501\02-Software\KL25-program\ch06-UART-20160501\KL25_UART\Debug/../05_Driver/gpio/gpio.c:119

    //根据port，给局部变量gpio_ptr赋值（GPIO基地址）
    gpio_ptr = GPIO_ARR[port]; 
    3c1e:	1c3b      	adds	r3, r7, #0
    3c20:	330b      	adds	r3, #11
    3c22:	781b      	ldrb	r3, [r3, #0]
    3c24:	1c1a      	adds	r2, r3, #0
    3c26:	4b09      	ldr	r3, [pc, #36]	; (3c4c <gpio_reverse+0x50>)
    3c28:	0092      	lsls	r2, r2, #2
    3c2a:	58d3      	ldr	r3, [r2, r3]
    3c2c:	60fb      	str	r3, [r7, #12]
E:\work-201605\2012-2016 M0+1-20160318\M0+2-20160325\06-User\SD-KL-CD(V6.5)-20160501\02-Software\KL25-program\ch06-UART-20160501\KL25_UART\Debug/../05_Driver/gpio/gpio.c:122

    //反转指定引脚输出状态
    BSET(pin,GPIO_PTOR_REG(gpio_ptr));
    3c2e:	68fb      	ldr	r3, [r7, #12]
    3c30:	68da      	ldr	r2, [r3, #12]
    3c32:	1c3b      	adds	r3, r7, #0
    3c34:	330a      	adds	r3, #10
    3c36:	781b      	ldrb	r3, [r3, #0]
    3c38:	2101      	movs	r1, #1
    3c3a:	1c08      	adds	r0, r1, #0
    3c3c:	4098      	lsls	r0, r3
    3c3e:	1c03      	adds	r3, r0, #0
    3c40:	431a      	orrs	r2, r3
    3c42:	68fb      	ldr	r3, [r7, #12]
    3c44:	60da      	str	r2, [r3, #12]
E:\work-201605\2012-2016 M0+1-20160318\M0+2-20160325\06-User\SD-KL-CD(V6.5)-20160501\02-Software\KL25-program\ch06-UART-20160501\KL25_UART\Debug/../05_Driver/gpio/gpio.c:123
}
    3c46:	46bd      	mov	sp, r7
    3c48:	b004      	add	sp, #16
    3c4a:	bd80      	pop	{r7, pc}
    3c4c:	000040e4 	.word	0x000040e4

00003c50 <gpio_get_port_pin>:
gpio_get_port_pin():
E:\work-201605\2012-2016 M0+1-20160318\M0+2-20160325\06-User\SD-KL-CD(V6.5)-20160501\02-Software\KL25-program\ch06-UART-20160501\KL25_UART\Debug/../05_Driver/gpio/gpio.c:334
//       pin:引脚号（0~31，实际取值由芯片的物理引脚决定）（传指带出参数）
//功能概要：将传进参数port_pin进行解析，得出具体端口号与引脚号，分别赋值给port与pin,返回。
//       （例：(PTB_NUM)|(9)解析为PORTB与9，并将其分别赋值给port与pin）。
//=====================================================================
void gpio_get_port_pin(uint_16 port_pin,uint_8* port,uint_8* pin)
{
    3c50:	b580      	push	{r7, lr}
    3c52:	b084      	sub	sp, #16
    3c54:	af00      	add	r7, sp, #0
    3c56:	60b9      	str	r1, [r7, #8]
    3c58:	607a      	str	r2, [r7, #4]
    3c5a:	1c3b      	adds	r3, r7, #0
    3c5c:	330e      	adds	r3, #14
    3c5e:	1c02      	adds	r2, r0, #0
    3c60:	801a      	strh	r2, [r3, #0]
E:\work-201605\2012-2016 M0+1-20160318\M0+2-20160325\06-User\SD-KL-CD(V6.5)-20160501\02-Software\KL25-program\ch06-UART-20160501\KL25_UART\Debug/../05_Driver/gpio/gpio.c:335
    *port = (port_pin>>8);
    3c62:	1c3b      	adds	r3, r7, #0
    3c64:	330e      	adds	r3, #14
    3c66:	881b      	ldrh	r3, [r3, #0]
    3c68:	0a1b      	lsrs	r3, r3, #8
    3c6a:	b29b      	uxth	r3, r3
    3c6c:	b2da      	uxtb	r2, r3
    3c6e:	68bb      	ldr	r3, [r7, #8]
    3c70:	701a      	strb	r2, [r3, #0]
E:\work-201605\2012-2016 M0+1-20160318\M0+2-20160325\06-User\SD-KL-CD(V6.5)-20160501\02-Software\KL25-program\ch06-UART-20160501\KL25_UART\Debug/../05_Driver/gpio/gpio.c:336
    *pin = port_pin;
    3c72:	1c3b      	adds	r3, r7, #0
    3c74:	330e      	adds	r3, #14
    3c76:	881b      	ldrh	r3, [r3, #0]
    3c78:	b2da      	uxtb	r2, r3
    3c7a:	687b      	ldr	r3, [r7, #4]
    3c7c:	701a      	strb	r2, [r3, #0]
E:\work-201605\2012-2016 M0+1-20160318\M0+2-20160325\06-User\SD-KL-CD(V6.5)-20160501\02-Software\KL25-program\ch06-UART-20160501\KL25_UART\Debug/../05_Driver/gpio/gpio.c:337
}
    3c7e:	46bd      	mov	sp, r7
    3c80:	b004      	add	sp, #16
    3c82:	bd80      	pop	{r7, pc}

00003c84 <SystemInit>:
SystemInit():
E:\work-201605\2012-2016 M0+1-20160318\M0+2-20160325\06-User\SD-KL-CD(V6.5)-20160501\02-Software\KL25-program\ch06-UART-20160501\KL25_UART\Debug/../03_MCU/system_MKL25Z4.c:111
//函数名称：SystemInit
//功能概要：初始化系统的时钟，并把PORT时钟门启用
//参数说明：无
//函数返回：无
//======================================================================
void SystemInit (void) {
    3c84:	b580      	push	{r7, lr}
    3c86:	b082      	sub	sp, #8
    3c88:	af00      	add	r7, sp, #0
E:\work-201605\2012-2016 M0+1-20160318\M0+2-20160325\06-User\SD-KL-CD(V6.5)-20160501\02-Software\KL25-program\ch06-UART-20160501\KL25_UART\Debug/../03_MCU/system_MKL25Z4.c:113

	unsigned int i = 0;
    3c8a:	2300      	movs	r3, #0
    3c8c:	607b      	str	r3, [r7, #4]
E:\work-201605\2012-2016 M0+1-20160318\M0+2-20160325\06-User\SD-KL-CD(V6.5)-20160501\02-Software\KL25-program\ch06-UART-20160501\KL25_UART\Debug/../03_MCU/system_MKL25Z4.c:114
	char temp_reg = 0;
    3c8e:	1cfb      	adds	r3, r7, #3
    3c90:	2200      	movs	r2, #0
    3c92:	701a      	strb	r2, [r3, #0]
E:\work-201605\2012-2016 M0+1-20160318\M0+2-20160325\06-User\SD-KL-CD(V6.5)-20160501\02-Software\KL25-program\ch06-UART-20160501\KL25_UART\Debug/../03_MCU/system_MKL25Z4.c:117

#if (DISABLE_WDOG)  //关闭看门狗
    SIM->COPC = (uint32_t)0x00u;    //SIM_COPC: COPT=0,COPCLKS=0,COPW=0
    3c94:	4a5b      	ldr	r2, [pc, #364]	; (3e04 <SystemInit+0x180>)
    3c96:	2388      	movs	r3, #136	; 0x88
    3c98:	015b      	lsls	r3, r3, #5
    3c9a:	2100      	movs	r1, #0
    3c9c:	50d1      	str	r1, [r2, r3]
E:\work-201605\2012-2016 M0+1-20160318\M0+2-20160325\06-User\SD-KL-CD(V6.5)-20160501\02-Software\KL25-program\ch06-UART-20160501\KL25_UART\Debug/../03_MCU/system_MKL25Z4.c:125
//1.首先从FEI模式过渡到FBE模式

    //C2= 0x1C，因为我们的核心板上采用了外部晶振为8Mhz，属于高频率范围，
    //C2[RANGE]设置为0b01；C2[HGO]设为1以配置晶振来进行高增益操作；因为
    //正在使用的外部参考时钟源是晶振，所以C2[EREFS]设置为1。
    MCG_C2 = (MCG_C2_RANGE0(1) | MCG_C2_EREFS0_MASK);
    3c9e:	4b5a      	ldr	r3, [pc, #360]	; (3e08 <SystemInit+0x184>)
    3ca0:	2214      	movs	r2, #20
    3ca2:	705a      	strb	r2, [r3, #1]
E:\work-201605\2012-2016 M0+1-20160318\M0+2-20160325\06-User\SD-KL-CD(V6.5)-20160501\02-Software\KL25-program\ch06-UART-20160501\KL25_UART\Debug/../03_MCU/system_MKL25Z4.c:130
    //C1 = 0x90 ，C1[CLKS]设置为2’b10，以便选择作为系统时钟源的外部参考时钟。
    //C1[FRDIV]设置为3'b011，对应256分频,因为8MHz/256=31.25kHz在由FLL要求的
    //31.25kHz至39.0625 kHz频率范围内。C1[IREFS]清除为0，选择外部参考时钟和
    //外部晶振。
    MCG_C1 = (MCG_C1_CLKS(2) | MCG_C1_FRDIV(3));
    3ca4:	4b58      	ldr	r3, [pc, #352]	; (3e08 <SystemInit+0x184>)
    3ca6:	2298      	movs	r2, #152	; 0x98
    3ca8:	701a      	strb	r2, [r3, #0]
E:\work-201605\2012-2016 M0+1-20160318\M0+2-20160325\06-User\SD-KL-CD(V6.5)-20160501\02-Software\KL25-program\ch06-UART-20160501\KL25_UART\Debug/../03_MCU/system_MKL25Z4.c:132
    //需要等到S[OSCINIT]被置位外部晶振才能使用
    for (i = 0 ; i < 20000 ; i++)
    3caa:	2300      	movs	r3, #0
    3cac:	607b      	str	r3, [r7, #4]
    3cae:	e00a      	b.n	3cc6 <SystemInit+0x42>
E:\work-201605\2012-2016 M0+1-20160318\M0+2-20160325\06-User\SD-KL-CD(V6.5)-20160501\02-Software\KL25-program\ch06-UART-20160501\KL25_UART\Debug/../03_MCU/system_MKL25Z4.c:135
    {
        //如果S[OSCINIT]在循环结束之前被置位就跳出循环
        if (MCG_S & MCG_S_OSCINIT0_MASK) break;
    3cb0:	4b55      	ldr	r3, [pc, #340]	; (3e08 <SystemInit+0x184>)
    3cb2:	799b      	ldrb	r3, [r3, #6]
    3cb4:	b2db      	uxtb	r3, r3
    3cb6:	1c1a      	adds	r2, r3, #0
    3cb8:	2302      	movs	r3, #2
    3cba:	4013      	ands	r3, r2
    3cbc:	d000      	beq.n	3cc0 <SystemInit+0x3c>
E:\work-201605\2012-2016 M0+1-20160318\M0+2-20160325\06-User\SD-KL-CD(V6.5)-20160501\02-Software\KL25-program\ch06-UART-20160501\KL25_UART\Debug/../03_MCU/system_MKL25Z4.c:135 (discriminator 1)
    3cbe:	e006      	b.n	3cce <SystemInit+0x4a>
E:\work-201605\2012-2016 M0+1-20160318\M0+2-20160325\06-User\SD-KL-CD(V6.5)-20160501\02-Software\KL25-program\ch06-UART-20160501\KL25_UART\Debug/../03_MCU/system_MKL25Z4.c:132
    //C1[FRDIV]设置为3'b011，对应256分频,因为8MHz/256=31.25kHz在由FLL要求的
    //31.25kHz至39.0625 kHz频率范围内。C1[IREFS]清除为0，选择外部参考时钟和
    //外部晶振。
    MCG_C1 = (MCG_C1_CLKS(2) | MCG_C1_FRDIV(3));
    //需要等到S[OSCINIT]被置位外部晶振才能使用
    for (i = 0 ; i < 20000 ; i++)
    3cc0:	687b      	ldr	r3, [r7, #4]
    3cc2:	3301      	adds	r3, #1
    3cc4:	607b      	str	r3, [r7, #4]
E:\work-201605\2012-2016 M0+1-20160318\M0+2-20160325\06-User\SD-KL-CD(V6.5)-20160501\02-Software\KL25-program\ch06-UART-20160501\KL25_UART\Debug/../03_MCU/system_MKL25Z4.c:132 (discriminator 1)
    3cc6:	687a      	ldr	r2, [r7, #4]
    3cc8:	4b50      	ldr	r3, [pc, #320]	; (3e0c <SystemInit+0x188>)
    3cca:	429a      	cmp	r2, r3
    3ccc:	d9f0      	bls.n	3cb0 <SystemInit+0x2c>
E:\work-201605\2012-2016 M0+1-20160318\M0+2-20160325\06-User\SD-KL-CD(V6.5)-20160501\02-Software\KL25-program\ch06-UART-20160501\KL25_UART\Debug/../03_MCU/system_MKL25Z4.c:138
    {
        //如果S[OSCINIT]在循环结束之前被置位就跳出循环
        if (MCG_S & MCG_S_OSCINIT0_MASK) break;
    }
    //等待参考时钟状态位清0
    for (i = 0 ; i < 2000 ; i++)
    3cce:	2300      	movs	r3, #0
    3cd0:	607b      	str	r3, [r7, #4]
    3cd2:	e00a      	b.n	3cea <SystemInit+0x66>
E:\work-201605\2012-2016 M0+1-20160318\M0+2-20160325\06-User\SD-KL-CD(V6.5)-20160501\02-Software\KL25-program\ch06-UART-20160501\KL25_UART\Debug/../03_MCU/system_MKL25Z4.c:141
    {
        //如果IREFST在循环结束之前被清0就跳出循环
        if (!(MCG_S & MCG_S_IREFST_MASK)) break;
    3cd4:	4b4c      	ldr	r3, [pc, #304]	; (3e08 <SystemInit+0x184>)
    3cd6:	799b      	ldrb	r3, [r3, #6]
    3cd8:	b2db      	uxtb	r3, r3
    3cda:	1c1a      	adds	r2, r3, #0
    3cdc:	2310      	movs	r3, #16
    3cde:	4013      	ands	r3, r2
    3ce0:	d100      	bne.n	3ce4 <SystemInit+0x60>
E:\work-201605\2012-2016 M0+1-20160318\M0+2-20160325\06-User\SD-KL-CD(V6.5)-20160501\02-Software\KL25-program\ch06-UART-20160501\KL25_UART\Debug/../03_MCU/system_MKL25Z4.c:141 (discriminator 1)
    3ce2:	e006      	b.n	3cf2 <SystemInit+0x6e>
E:\work-201605\2012-2016 M0+1-20160318\M0+2-20160325\06-User\SD-KL-CD(V6.5)-20160501\02-Software\KL25-program\ch06-UART-20160501\KL25_UART\Debug/../03_MCU/system_MKL25Z4.c:138
    {
        //如果S[OSCINIT]在循环结束之前被置位就跳出循环
        if (MCG_S & MCG_S_OSCINIT0_MASK) break;
    }
    //等待参考时钟状态位清0
    for (i = 0 ; i < 2000 ; i++)
    3ce4:	687b      	ldr	r3, [r7, #4]
    3ce6:	3301      	adds	r3, #1
    3ce8:	607b      	str	r3, [r7, #4]
E:\work-201605\2012-2016 M0+1-20160318\M0+2-20160325\06-User\SD-KL-CD(V6.5)-20160501\02-Software\KL25-program\ch06-UART-20160501\KL25_UART\Debug/../03_MCU/system_MKL25Z4.c:138 (discriminator 1)
    3cea:	687a      	ldr	r2, [r7, #4]
    3cec:	4b48      	ldr	r3, [pc, #288]	; (3e10 <SystemInit+0x18c>)
    3cee:	429a      	cmp	r2, r3
    3cf0:	d9f0      	bls.n	3cd4 <SystemInit+0x50>
E:\work-201605\2012-2016 M0+1-20160318\M0+2-20160325\06-User\SD-KL-CD(V6.5)-20160501\02-Software\KL25-program\ch06-UART-20160501\KL25_UART\Debug/../03_MCU/system_MKL25Z4.c:144
    {
        //如果IREFST在循环结束之前被清0就跳出循环
        if (!(MCG_S & MCG_S_IREFST_MASK)) break;
    }
    //等待时钟状态位以显示时钟源为外部参考时钟
    for (i = 0 ; i < 2000 ; i++)
    3cf2:	2300      	movs	r3, #0
    3cf4:	607b      	str	r3, [r7, #4]
    3cf6:	e00c      	b.n	3d12 <SystemInit+0x8e>
E:\work-201605\2012-2016 M0+1-20160318\M0+2-20160325\06-User\SD-KL-CD(V6.5)-20160501\02-Software\KL25-program\ch06-UART-20160501\KL25_UART\Debug/../03_MCU/system_MKL25Z4.c:147
    {
        //如果CLKST显示外部时钟被选择，在循环结束之前就跳出循环
        if (((MCG_S & MCG_S_CLKST_MASK) >> MCG_S_CLKST_SHIFT) == 0x2) break;
    3cf8:	4b43      	ldr	r3, [pc, #268]	; (3e08 <SystemInit+0x184>)
    3cfa:	799b      	ldrb	r3, [r3, #6]
    3cfc:	b2db      	uxtb	r3, r3
    3cfe:	1c1a      	adds	r2, r3, #0
    3d00:	230c      	movs	r3, #12
    3d02:	4013      	ands	r3, r2
    3d04:	089b      	lsrs	r3, r3, #2
    3d06:	2b02      	cmp	r3, #2
    3d08:	d100      	bne.n	3d0c <SystemInit+0x88>
E:\work-201605\2012-2016 M0+1-20160318\M0+2-20160325\06-User\SD-KL-CD(V6.5)-20160501\02-Software\KL25-program\ch06-UART-20160501\KL25_UART\Debug/../03_MCU/system_MKL25Z4.c:147 (discriminator 1)
    3d0a:	e006      	b.n	3d1a <SystemInit+0x96>
E:\work-201605\2012-2016 M0+1-20160318\M0+2-20160325\06-User\SD-KL-CD(V6.5)-20160501\02-Software\KL25-program\ch06-UART-20160501\KL25_UART\Debug/../03_MCU/system_MKL25Z4.c:144
    {
        //如果IREFST在循环结束之前被清0就跳出循环
        if (!(MCG_S & MCG_S_IREFST_MASK)) break;
    }
    //等待时钟状态位以显示时钟源为外部参考时钟
    for (i = 0 ; i < 2000 ; i++)
    3d0c:	687b      	ldr	r3, [r7, #4]
    3d0e:	3301      	adds	r3, #1
    3d10:	607b      	str	r3, [r7, #4]
E:\work-201605\2012-2016 M0+1-20160318\M0+2-20160325\06-User\SD-KL-CD(V6.5)-20160501\02-Software\KL25-program\ch06-UART-20160501\KL25_UART\Debug/../03_MCU/system_MKL25Z4.c:144 (discriminator 1)
    3d12:	687a      	ldr	r2, [r7, #4]
    3d14:	4b3e      	ldr	r3, [pc, #248]	; (3e10 <SystemInit+0x18c>)
    3d16:	429a      	cmp	r2, r3
    3d18:	d9ee      	bls.n	3cf8 <SystemInit+0x74>
E:\work-201605\2012-2016 M0+1-20160318\M0+2-20160325\06-User\SD-KL-CD(V6.5)-20160501\02-Software\KL25-program\ch06-UART-20160501\KL25_UART\Debug/../03_MCU/system_MKL25Z4.c:151
        //如果CLKST显示外部时钟被选择，在循环结束之前就跳出循环
        if (((MCG_S & MCG_S_CLKST_MASK) >> MCG_S_CLKST_SHIFT) == 0x2) break;
    }

//2.现在处于FBE状态，使能时钟监视器，由FBE直接转换为PBE模式
    MCG_C6 |= MCG_C6_CME0_MASK;
    3d1a:	4b3b      	ldr	r3, [pc, #236]	; (3e08 <SystemInit+0x184>)
    3d1c:	4a3a      	ldr	r2, [pc, #232]	; (3e08 <SystemInit+0x184>)
    3d1e:	7952      	ldrb	r2, [r2, #5]
    3d20:	b2d2      	uxtb	r2, r2
    3d22:	2120      	movs	r1, #32
    3d24:	430a      	orrs	r2, r1
    3d26:	b2d2      	uxtb	r2, r2
    3d28:	715a      	strb	r2, [r3, #5]
E:\work-201605\2012-2016 M0+1-20160318\M0+2-20160325\06-User\SD-KL-CD(V6.5)-20160501\02-Software\KL25-program\ch06-UART-20160501\KL25_UART\Debug/../03_MCU/system_MKL25Z4.c:153
    //配置PLL为2分频
    MCG_C5 |= MCG_C5_PRDIV0(1);
    3d2a:	4b37      	ldr	r3, [pc, #220]	; (3e08 <SystemInit+0x184>)
    3d2c:	4a36      	ldr	r2, [pc, #216]	; (3e08 <SystemInit+0x184>)
    3d2e:	7912      	ldrb	r2, [r2, #4]
    3d30:	b2d2      	uxtb	r2, r2
    3d32:	2101      	movs	r1, #1
    3d34:	430a      	orrs	r2, r1
    3d36:	b2d2      	uxtb	r2, r2
    3d38:	711a      	strb	r2, [r3, #4]
E:\work-201605\2012-2016 M0+1-20160318\M0+2-20160325\06-User\SD-KL-CD(V6.5)-20160501\02-Software\KL25-program\ch06-UART-20160501\KL25_UART\Debug/../03_MCU/system_MKL25Z4.c:155
    //配置MCG_C6 以设置PLL倍频因子并且时能PLL，PLLS位被置位来时能PLL，MCGOUT时钟源仍然是外部参考时钟
    temp_reg = MCG_C6; //存储当前C6的值（因为CME0位之前被置位了）
    3d3a:	4b33      	ldr	r3, [pc, #204]	; (3e08 <SystemInit+0x184>)
    3d3c:	795b      	ldrb	r3, [r3, #5]
    3d3e:	b2da      	uxtb	r2, r3
    3d40:	1cfb      	adds	r3, r7, #3
    3d42:	701a      	strb	r2, [r3, #0]
E:\work-201605\2012-2016 M0+1-20160318\M0+2-20160325\06-User\SD-KL-CD(V6.5)-20160501\02-Software\KL25-program\ch06-UART-20160501\KL25_UART\Debug/../03_MCU/system_MKL25Z4.c:156
    temp_reg &= ~MCG_C6_VDIV0_MASK; //将VDIV清0
    3d44:	1cfb      	adds	r3, r7, #3
    3d46:	1cfa      	adds	r2, r7, #3
    3d48:	7812      	ldrb	r2, [r2, #0]
    3d4a:	211f      	movs	r1, #31
    3d4c:	438a      	bics	r2, r1
    3d4e:	701a      	strb	r2, [r3, #0]
E:\work-201605\2012-2016 M0+1-20160318\M0+2-20160325\06-User\SD-KL-CD(V6.5)-20160501\02-Software\KL25-program\ch06-UART-20160501\KL25_UART\Debug/../03_MCU/system_MKL25Z4.c:157
    temp_reg |= MCG_C6_PLLS_MASK | MCG_C6_VDIV0(0); // 重新写值到VDIV 并且时能PLL
    3d50:	1cfb      	adds	r3, r7, #3
    3d52:	1cfa      	adds	r2, r7, #3
    3d54:	7812      	ldrb	r2, [r2, #0]
    3d56:	2140      	movs	r1, #64	; 0x40
    3d58:	430a      	orrs	r2, r1
    3d5a:	701a      	strb	r2, [r3, #0]
E:\work-201605\2012-2016 M0+1-20160318\M0+2-20160325\06-User\SD-KL-CD(V6.5)-20160501\02-Software\KL25-program\ch06-UART-20160501\KL25_UART\Debug/../03_MCU/system_MKL25Z4.c:158
    MCG_C6 = temp_reg; // 更新MCG_C6的值
    3d5c:	4b2a      	ldr	r3, [pc, #168]	; (3e08 <SystemInit+0x184>)
    3d5e:	1cfa      	adds	r2, r7, #3
    3d60:	7812      	ldrb	r2, [r2, #0]
    3d62:	715a      	strb	r2, [r3, #5]
E:\work-201605\2012-2016 M0+1-20160318\M0+2-20160325\06-User\SD-KL-CD(V6.5)-20160501\02-Software\KL25-program\ch06-UART-20160501\KL25_UART\Debug/../03_MCU/system_MKL25Z4.c:160
    // 等待PLLST状态位被置
    for (i = 0 ; i < 2000 ; i++)
    3d64:	2300      	movs	r3, #0
    3d66:	607b      	str	r3, [r7, #4]
    3d68:	e00a      	b.n	3d80 <SystemInit+0xfc>
E:\work-201605\2012-2016 M0+1-20160318\M0+2-20160325\06-User\SD-KL-CD(V6.5)-20160501\02-Software\KL25-program\ch06-UART-20160501\KL25_UART\Debug/../03_MCU/system_MKL25Z4.c:163
    {
        //如果PLLST在循环结束之前被置位就跳出循环
        if (MCG_S & MCG_S_PLLST_MASK)
    3d6a:	4b27      	ldr	r3, [pc, #156]	; (3e08 <SystemInit+0x184>)
    3d6c:	799b      	ldrb	r3, [r3, #6]
    3d6e:	b2db      	uxtb	r3, r3
    3d70:	1c1a      	adds	r2, r3, #0
    3d72:	2320      	movs	r3, #32
    3d74:	4013      	ands	r3, r2
    3d76:	d000      	beq.n	3d7a <SystemInit+0xf6>
E:\work-201605\2012-2016 M0+1-20160318\M0+2-20160325\06-User\SD-KL-CD(V6.5)-20160501\02-Software\KL25-program\ch06-UART-20160501\KL25_UART\Debug/../03_MCU/system_MKL25Z4.c:164
        	break;
    3d78:	e006      	b.n	3d88 <SystemInit+0x104>
E:\work-201605\2012-2016 M0+1-20160318\M0+2-20160325\06-User\SD-KL-CD(V6.5)-20160501\02-Software\KL25-program\ch06-UART-20160501\KL25_UART\Debug/../03_MCU/system_MKL25Z4.c:160
    temp_reg = MCG_C6; //存储当前C6的值（因为CME0位之前被置位了）
    temp_reg &= ~MCG_C6_VDIV0_MASK; //将VDIV清0
    temp_reg |= MCG_C6_PLLS_MASK | MCG_C6_VDIV0(0); // 重新写值到VDIV 并且时能PLL
    MCG_C6 = temp_reg; // 更新MCG_C6的值
    // 等待PLLST状态位被置
    for (i = 0 ; i < 2000 ; i++)
    3d7a:	687b      	ldr	r3, [r7, #4]
    3d7c:	3301      	adds	r3, #1
    3d7e:	607b      	str	r3, [r7, #4]
E:\work-201605\2012-2016 M0+1-20160318\M0+2-20160325\06-User\SD-KL-CD(V6.5)-20160501\02-Software\KL25-program\ch06-UART-20160501\KL25_UART\Debug/../03_MCU/system_MKL25Z4.c:160 (discriminator 1)
    3d80:	687a      	ldr	r2, [r7, #4]
    3d82:	4b23      	ldr	r3, [pc, #140]	; (3e10 <SystemInit+0x18c>)
    3d84:	429a      	cmp	r2, r3
    3d86:	d9f0      	bls.n	3d6a <SystemInit+0xe6>
E:\work-201605\2012-2016 M0+1-20160318\M0+2-20160325\06-User\SD-KL-CD(V6.5)-20160501\02-Software\KL25-program\ch06-UART-20160501\KL25_UART\Debug/../03_MCU/system_MKL25Z4.c:167
        //如果PLLST在循环结束之前被置位就跳出循环
        if (MCG_S & MCG_S_PLLST_MASK)
        	break;
    }
    //等待LOCK位被置
    for (i = 0 ; i < 4000 ; i++)
    3d88:	2300      	movs	r3, #0
    3d8a:	607b      	str	r3, [r7, #4]
    3d8c:	e00a      	b.n	3da4 <SystemInit+0x120>
E:\work-201605\2012-2016 M0+1-20160318\M0+2-20160325\06-User\SD-KL-CD(V6.5)-20160501\02-Software\KL25-program\ch06-UART-20160501\KL25_UART\Debug/../03_MCU/system_MKL25Z4.c:170
    {
        //如果LOCK在循环结束之前被置位就跳出循环
        if (MCG_S & MCG_S_LOCK0_MASK)
    3d8e:	4b1e      	ldr	r3, [pc, #120]	; (3e08 <SystemInit+0x184>)
    3d90:	799b      	ldrb	r3, [r3, #6]
    3d92:	b2db      	uxtb	r3, r3
    3d94:	1c1a      	adds	r2, r3, #0
    3d96:	2340      	movs	r3, #64	; 0x40
    3d98:	4013      	ands	r3, r2
    3d9a:	d000      	beq.n	3d9e <SystemInit+0x11a>
E:\work-201605\2012-2016 M0+1-20160318\M0+2-20160325\06-User\SD-KL-CD(V6.5)-20160501\02-Software\KL25-program\ch06-UART-20160501\KL25_UART\Debug/../03_MCU/system_MKL25Z4.c:171
        	break;
    3d9c:	e006      	b.n	3dac <SystemInit+0x128>
E:\work-201605\2012-2016 M0+1-20160318\M0+2-20160325\06-User\SD-KL-CD(V6.5)-20160501\02-Software\KL25-program\ch06-UART-20160501\KL25_UART\Debug/../03_MCU/system_MKL25Z4.c:167
        //如果PLLST在循环结束之前被置位就跳出循环
        if (MCG_S & MCG_S_PLLST_MASK)
        	break;
    }
    //等待LOCK位被置
    for (i = 0 ; i < 4000 ; i++)
    3d9e:	687b      	ldr	r3, [r7, #4]
    3da0:	3301      	adds	r3, #1
    3da2:	607b      	str	r3, [r7, #4]
E:\work-201605\2012-2016 M0+1-20160318\M0+2-20160325\06-User\SD-KL-CD(V6.5)-20160501\02-Software\KL25-program\ch06-UART-20160501\KL25_UART\Debug/../03_MCU/system_MKL25Z4.c:167 (discriminator 1)
    3da4:	687a      	ldr	r2, [r7, #4]
    3da6:	4b1b      	ldr	r3, [pc, #108]	; (3e14 <SystemInit+0x190>)
    3da8:	429a      	cmp	r2, r3
    3daa:	d9f0      	bls.n	3d8e <SystemInit+0x10a>
E:\work-201605\2012-2016 M0+1-20160318\M0+2-20160325\06-User\SD-KL-CD(V6.5)-20160501\02-Software\KL25-program\ch06-UART-20160501\KL25_UART\Debug/../03_MCU/system_MKL25Z4.c:177
    }

//3.现在处于PBE模式。最后，PBE模式转换成PEE模式
    // 设置核心时钟分频器2分频
    //设置总线时钟分频器2分频 (总线时钟的时钟源是核心时钟)
    SIM_CLKDIV1 = (SIM_CLKDIV1_OUTDIV1(1) | SIM_CLKDIV1_OUTDIV4(1) );
    3dac:	4a15      	ldr	r2, [pc, #84]	; (3e04 <SystemInit+0x180>)
    3dae:	4b1a      	ldr	r3, [pc, #104]	; (3e18 <SystemInit+0x194>)
    3db0:	491a      	ldr	r1, [pc, #104]	; (3e1c <SystemInit+0x198>)
    3db2:	50d1      	str	r1, [r2, r3]
E:\work-201605\2012-2016 M0+1-20160318\M0+2-20160325\06-User\SD-KL-CD(V6.5)-20160501\02-Software\KL25-program\ch06-UART-20160501\KL25_UART\Debug/../03_MCU/system_MKL25Z4.c:179
    //清CLKS来打开CLKS多路复用器来选择PLL作为MCGCLKOUT
    MCG_C1 &= ~MCG_C1_CLKS_MASK;
    3db4:	4b14      	ldr	r3, [pc, #80]	; (3e08 <SystemInit+0x184>)
    3db6:	4a14      	ldr	r2, [pc, #80]	; (3e08 <SystemInit+0x184>)
    3db8:	7812      	ldrb	r2, [r2, #0]
    3dba:	b2d1      	uxtb	r1, r2
    3dbc:	223f      	movs	r2, #63	; 0x3f
    3dbe:	400a      	ands	r2, r1
    3dc0:	b2d2      	uxtb	r2, r2
    3dc2:	701a      	strb	r2, [r3, #0]
E:\work-201605\2012-2016 M0+1-20160318\M0+2-20160325\06-User\SD-KL-CD(V6.5)-20160501\02-Software\KL25-program\ch06-UART-20160501\KL25_UART\Debug/../03_MCU/system_MKL25Z4.c:181
    // 等待时钟状态位更新
    for (i = 0 ; i < 2000 ; i++)
    3dc4:	2300      	movs	r3, #0
    3dc6:	607b      	str	r3, [r7, #4]
    3dc8:	e00c      	b.n	3de4 <SystemInit+0x160>
E:\work-201605\2012-2016 M0+1-20160318\M0+2-20160325\06-User\SD-KL-CD(V6.5)-20160501\02-Software\KL25-program\ch06-UART-20160501\KL25_UART\Debug/../03_MCU/system_MKL25Z4.c:184
    {
        //如果CLKST在循环结束之前等于3就跳出循环
        if (((MCG_S & MCG_S_CLKST_MASK) >> MCG_S_CLKST_SHIFT) == 0x3) break;
    3dca:	4b0f      	ldr	r3, [pc, #60]	; (3e08 <SystemInit+0x184>)
    3dcc:	799b      	ldrb	r3, [r3, #6]
    3dce:	b2db      	uxtb	r3, r3
    3dd0:	1c1a      	adds	r2, r3, #0
    3dd2:	230c      	movs	r3, #12
    3dd4:	4013      	ands	r3, r2
    3dd6:	089b      	lsrs	r3, r3, #2
    3dd8:	2b03      	cmp	r3, #3
    3dda:	d100      	bne.n	3dde <SystemInit+0x15a>
E:\work-201605\2012-2016 M0+1-20160318\M0+2-20160325\06-User\SD-KL-CD(V6.5)-20160501\02-Software\KL25-program\ch06-UART-20160501\KL25_UART\Debug/../03_MCU/system_MKL25Z4.c:184 (discriminator 1)
    3ddc:	e006      	b.n	3dec <SystemInit+0x168>
E:\work-201605\2012-2016 M0+1-20160318\M0+2-20160325\06-User\SD-KL-CD(V6.5)-20160501\02-Software\KL25-program\ch06-UART-20160501\KL25_UART\Debug/../03_MCU/system_MKL25Z4.c:181
    //设置总线时钟分频器2分频 (总线时钟的时钟源是核心时钟)
    SIM_CLKDIV1 = (SIM_CLKDIV1_OUTDIV1(1) | SIM_CLKDIV1_OUTDIV4(1) );
    //清CLKS来打开CLKS多路复用器来选择PLL作为MCGCLKOUT
    MCG_C1 &= ~MCG_C1_CLKS_MASK;
    // 等待时钟状态位更新
    for (i = 0 ; i < 2000 ; i++)
    3dde:	687b      	ldr	r3, [r7, #4]
    3de0:	3301      	adds	r3, #1
    3de2:	607b      	str	r3, [r7, #4]
E:\work-201605\2012-2016 M0+1-20160318\M0+2-20160325\06-User\SD-KL-CD(V6.5)-20160501\02-Software\KL25-program\ch06-UART-20160501\KL25_UART\Debug/../03_MCU/system_MKL25Z4.c:181 (discriminator 1)
    3de4:	687a      	ldr	r2, [r7, #4]
    3de6:	4b0a      	ldr	r3, [pc, #40]	; (3e10 <SystemInit+0x18c>)
    3de8:	429a      	cmp	r2, r3
    3dea:	d9ee      	bls.n	3dca <SystemInit+0x146>
E:\work-201605\2012-2016 M0+1-20160318\M0+2-20160325\06-User\SD-KL-CD(V6.5)-20160501\02-Software\KL25-program\ch06-UART-20160501\KL25_UART\Debug/../03_MCU/system_MKL25Z4.c:189
        if (((MCG_S & MCG_S_CLKST_MASK) >> MCG_S_CLKST_SHIFT) == 0x3) break;
    }
//4.现在处于PEE模式

    //初始化后，开始PORT模块时钟
    SIM_SCGC5 |= SIM_SCGC5_PORTA_MASK
    3dec:	4a05      	ldr	r2, [pc, #20]	; (3e04 <SystemInit+0x180>)
    3dee:	4905      	ldr	r1, [pc, #20]	; (3e04 <SystemInit+0x180>)
    3df0:	4b0b      	ldr	r3, [pc, #44]	; (3e20 <SystemInit+0x19c>)
    3df2:	58cb      	ldr	r3, [r1, r3]
    3df4:	21f8      	movs	r1, #248	; 0xf8
    3df6:	0189      	lsls	r1, r1, #6
    3df8:	4319      	orrs	r1, r3
    3dfa:	4b09      	ldr	r3, [pc, #36]	; (3e20 <SystemInit+0x19c>)
    3dfc:	50d1      	str	r1, [r2, r3]
E:\work-201605\2012-2016 M0+1-20160318\M0+2-20160325\06-User\SD-KL-CD(V6.5)-20160501\02-Software\KL25-program\ch06-UART-20160501\KL25_UART\Debug/../03_MCU/system_MKL25Z4.c:194
  			  | SIM_SCGC5_PORTB_MASK
  			  | SIM_SCGC5_PORTC_MASK
  			  | SIM_SCGC5_PORTD_MASK
  			  | SIM_SCGC5_PORTE_MASK;
}
    3dfe:	46bd      	mov	sp, r7
    3e00:	b002      	add	sp, #8
    3e02:	bd80      	pop	{r7, pc}
    3e04:	40047000 	.word	0x40047000
    3e08:	40064000 	.word	0x40064000
    3e0c:	00004e1f 	.word	0x00004e1f
    3e10:	000007cf 	.word	0x000007cf
    3e14:	00000f9f 	.word	0x00000f9f
    3e18:	00001044 	.word	0x00001044
    3e1c:	10010000 	.word	0x10010000
    3e20:	00001038 	.word	0x00001038

00003e24 <memset>:
memset():
    3e24:	b5f0      	push	{r4, r5, r6, r7, lr}
    3e26:	0783      	lsls	r3, r0, #30
    3e28:	d046      	beq.n	3eb8 <memset+0x94>
    3e2a:	1e54      	subs	r4, r2, #1
    3e2c:	2a00      	cmp	r2, #0
    3e2e:	d042      	beq.n	3eb6 <memset+0x92>
    3e30:	b2ce      	uxtb	r6, r1
    3e32:	1c03      	adds	r3, r0, #0
    3e34:	2503      	movs	r5, #3
    3e36:	e003      	b.n	3e40 <memset+0x1c>
    3e38:	1e62      	subs	r2, r4, #1
    3e3a:	2c00      	cmp	r4, #0
    3e3c:	d03b      	beq.n	3eb6 <memset+0x92>
    3e3e:	1c14      	adds	r4, r2, #0
    3e40:	3301      	adds	r3, #1
    3e42:	1e5a      	subs	r2, r3, #1
    3e44:	7016      	strb	r6, [r2, #0]
    3e46:	422b      	tst	r3, r5
    3e48:	d1f6      	bne.n	3e38 <memset+0x14>
    3e4a:	2c03      	cmp	r4, #3
    3e4c:	d92b      	bls.n	3ea6 <memset+0x82>
    3e4e:	25ff      	movs	r5, #255	; 0xff
    3e50:	400d      	ands	r5, r1
    3e52:	022a      	lsls	r2, r5, #8
    3e54:	4315      	orrs	r5, r2
    3e56:	042a      	lsls	r2, r5, #16
    3e58:	4315      	orrs	r5, r2
    3e5a:	2c0f      	cmp	r4, #15
    3e5c:	d915      	bls.n	3e8a <memset+0x66>
    3e5e:	1c27      	adds	r7, r4, #0
    3e60:	3f10      	subs	r7, #16
    3e62:	093f      	lsrs	r7, r7, #4
    3e64:	1c1e      	adds	r6, r3, #0
    3e66:	013a      	lsls	r2, r7, #4
    3e68:	3610      	adds	r6, #16
    3e6a:	18b6      	adds	r6, r6, r2
    3e6c:	1c1a      	adds	r2, r3, #0
    3e6e:	6015      	str	r5, [r2, #0]
    3e70:	6055      	str	r5, [r2, #4]
    3e72:	6095      	str	r5, [r2, #8]
    3e74:	60d5      	str	r5, [r2, #12]
    3e76:	3210      	adds	r2, #16
    3e78:	42b2      	cmp	r2, r6
    3e7a:	d1f8      	bne.n	3e6e <memset+0x4a>
    3e7c:	3701      	adds	r7, #1
    3e7e:	013f      	lsls	r7, r7, #4
    3e80:	220f      	movs	r2, #15
    3e82:	19db      	adds	r3, r3, r7
    3e84:	4014      	ands	r4, r2
    3e86:	2c03      	cmp	r4, #3
    3e88:	d90d      	bls.n	3ea6 <memset+0x82>
    3e8a:	1f27      	subs	r7, r4, #4
    3e8c:	08bf      	lsrs	r7, r7, #2
    3e8e:	00ba      	lsls	r2, r7, #2
    3e90:	1d1e      	adds	r6, r3, #4
    3e92:	18b6      	adds	r6, r6, r2
    3e94:	1c1a      	adds	r2, r3, #0
    3e96:	c220      	stmia	r2!, {r5}
    3e98:	42b2      	cmp	r2, r6
    3e9a:	d1fc      	bne.n	3e96 <memset+0x72>
    3e9c:	3701      	adds	r7, #1
    3e9e:	00bf      	lsls	r7, r7, #2
    3ea0:	2203      	movs	r2, #3
    3ea2:	19db      	adds	r3, r3, r7
    3ea4:	4014      	ands	r4, r2
    3ea6:	2c00      	cmp	r4, #0
    3ea8:	d005      	beq.n	3eb6 <memset+0x92>
    3eaa:	191c      	adds	r4, r3, r4
    3eac:	b2c9      	uxtb	r1, r1
    3eae:	7019      	strb	r1, [r3, #0]
    3eb0:	3301      	adds	r3, #1
    3eb2:	42a3      	cmp	r3, r4
    3eb4:	d1fb      	bne.n	3eae <memset+0x8a>
    3eb6:	bdf0      	pop	{r4, r5, r6, r7, pc}
    3eb8:	1c14      	adds	r4, r2, #0
    3eba:	1c03      	adds	r3, r0, #0
    3ebc:	e7c5      	b.n	3e4a <memset+0x26>
    3ebe:	46c0      	nop			; (mov r8, r8)

00003ec0 <strlen>:
strlen():
    3ec0:	2300      	movs	r3, #0
    3ec2:	5cc2      	ldrb	r2, [r0, r3]
    3ec4:	3301      	adds	r3, #1
    3ec6:	2a00      	cmp	r2, #0
    3ec8:	d1fb      	bne.n	3ec2 <strlen+0x2>
    3eca:	1e58      	subs	r0, r3, #1
    3ecc:	4770      	bx	lr
    3ece:	46c0      	nop			; (mov r8, r8)
$d():
    3ed0:	c3d3b9ca 	.word	0xc3d3b9ca
    3ed4:	74726175 	.word	0x74726175
    3ed8:	6e65735f 	.word	0x6e65735f
    3edc:	74735f64 	.word	0x74735f64
    3ee0:	676e6972 	.word	0x676e6972
    3ee4:	cdcba2b7 	.word	0xcdcba2b7
    3ee8:	6548baa3 	.word	0x6548baa3
    3eec:	206f6c6c 	.word	0x206f6c6c
    3ef0:	74726155 	.word	0x74726155
    3ef4:	0d21305f 	.word	0x0d21305f
    3ef8:	0000000a 	.word	0x0000000a
    3efc:	c3d3b9ca 	.word	0xc3d3b9ca
    3f00:	74726175 	.word	0x74726175
    3f04:	6e65735f 	.word	0x6e65735f
    3f08:	74735f64 	.word	0x74735f64
    3f0c:	676e6972 	.word	0x676e6972
    3f10:	cdcba2b7 	.word	0xcdcba2b7
    3f14:	6548baa3 	.word	0x6548baa3
    3f18:	206f6c6c 	.word	0x206f6c6c
    3f1c:	74726155 	.word	0x74726155
    3f20:	0d21315f 	.word	0x0d21315f
    3f24:	0000000a 	.word	0x0000000a
    3f28:	c3d3b9ca 	.word	0xc3d3b9ca
    3f2c:	74726175 	.word	0x74726175
    3f30:	6e65735f 	.word	0x6e65735f
    3f34:	74735f64 	.word	0x74735f64
    3f38:	676e6972 	.word	0x676e6972
    3f3c:	cdcba2b7 	.word	0xcdcba2b7
    3f40:	6548baa3 	.word	0x6548baa3
    3f44:	206f6c6c 	.word	0x206f6c6c
    3f48:	74726155 	.word	0x74726155
    3f4c:	0d21325f 	.word	0x0d21325f
    3f50:	0000000a 	.word	0x0000000a
    3f54:	c3d3b9ca 	.word	0xc3d3b9ca
    3f58:	6e697270 	.word	0x6e697270
    3f5c:	afba6674 	.word	0xafba6674
    3f60:	a2b7fdca 	.word	0xa2b7fdca
    3f64:	baa3cdcb 	.word	0xbaa3cdcb
    3f68:	6c6c6548 	.word	0x6c6c6548
    3f6c:	6155206f 	.word	0x6155206f
    3f70:	325f7472 	.word	0x325f7472
    3f74:	000a0d21 	.word	0x000a0d21
    3f78:	b4d7c6b5 	.word	0xb4d7c6b5
    3f7c:	e4b1accc 	.word	0xe4b1accc
    3f80:	ceb4bbbb 	.word	0xceb4bbbb
    3f84:	4c6dfdca 	.word	0x4c6dfdca
    3f88:	74686769 	.word	0x74686769
    3f8c:	6168635f 	.word	0x6168635f
    3f90:	6e5f676e 	.word	0x6e5f676e
    3f94:	253d6d75 	.word	0x253d6d75
    3f98:	00000a64 	.word	0x00000a64
    3f9c:	54524155 	.word	0x54524155
    3fa0:	0d21305f 	.word	0x0d21305f
    3fa4:	0000000a 	.word	0x0000000a
    3fa8:	54524155 	.word	0x54524155
    3fac:	0d21315f 	.word	0x0d21315f
    3fb0:	0000000a 	.word	0x0000000a
    3fb4:	54524155 	.word	0x54524155
    3fb8:	0d21325f 	.word	0x0d21325f
    3fbc:	0000000a 	.word	0x0000000a
    3fc0:	00000fcc 	.word	0x00000fcc
    3fc4:	000011ba 	.word	0x000011ba
    3fc8:	000011ba 	.word	0x000011ba
    3fcc:	00000fac 	.word	0x00000fac
    3fd0:	00000e96 	.word	0x00000e96
    3fd4:	00000e96 	.word	0x00000e96
    3fd8:	00000f9e 	.word	0x00000f9e
    3fdc:	00000fac 	.word	0x00000fac
    3fe0:	00000e96 	.word	0x00000e96
    3fe4:	00000f9e 	.word	0x00000f9e
    3fe8:	00000e96 	.word	0x00000e96
    3fec:	00000fac 	.word	0x00000fac
    3ff0:	00000e94 	.word	0x00000e94
    3ff4:	00000e94 	.word	0x00000e94
    3ff8:	00000e94 	.word	0x00000e94
    3ffc:	000011c2 	.word	0x000011c2
    4000:	00002a22 	.word	0x00002a22
    4004:	00002a58 	.word	0x00002a58
    4008:	00002a58 	.word	0x00002a58
    400c:	00002a46 	.word	0x00002a46
    4010:	00002a58 	.word	0x00002a58
    4014:	00002a58 	.word	0x00002a58
    4018:	00002a58 	.word	0x00002a58
    401c:	00002a58 	.word	0x00002a58
    4020:	00002a58 	.word	0x00002a58
    4024:	00002a58 	.word	0x00002a58
    4028:	00002a58 	.word	0x00002a58
    402c:	00002a10 	.word	0x00002a10
    4030:	00002a58 	.word	0x00002a58
    4034:	000029fe 	.word	0x000029fe
    4038:	00002a58 	.word	0x00002a58
    403c:	00002a58 	.word	0x00002a58
    4040:	00002a34 	.word	0x00002a34
    4044:	00002fb0 	.word	0x00002fb0
    4048:	0000337a 	.word	0x0000337a
    404c:	0000337a 	.word	0x0000337a
    4050:	0000337a 	.word	0x0000337a
    4054:	0000337a 	.word	0x0000337a
    4058:	0000337a 	.word	0x0000337a
    405c:	0000337a 	.word	0x0000337a
    4060:	0000337a 	.word	0x0000337a
    4064:	0000337a 	.word	0x0000337a
    4068:	0000337a 	.word	0x0000337a
    406c:	0000312c 	.word	0x0000312c
    4070:	00003276 	.word	0x00003276
    4074:	00002c06 	.word	0x00002c06
    4078:	0000337a 	.word	0x0000337a
    407c:	00002d58 	.word	0x00002d58
    4080:	0000337a 	.word	0x0000337a
    4084:	0000337a 	.word	0x0000337a
    4088:	00002c06 	.word	0x00002c06
    408c:	0000337a 	.word	0x0000337a
    4090:	0000337a 	.word	0x0000337a
    4094:	0000337a 	.word	0x0000337a
    4098:	0000337a 	.word	0x0000337a
    409c:	00003364 	.word	0x00003364
    40a0:	00003100 	.word	0x00003100
    40a4:	00003158 	.word	0x00003158
    40a8:	0000337a 	.word	0x0000337a
    40ac:	0000337a 	.word	0x0000337a
    40b0:	0000329c 	.word	0x0000329c
    40b4:	0000337a 	.word	0x0000337a
    40b8:	00003190 	.word	0x00003190
    40bc:	0000337a 	.word	0x0000337a
    40c0:	0000337a 	.word	0x0000337a
    40c4:	00002fb0 	.word	0x00002fb0

000040c8 <UART_ARR>:
    40c8:	4006b000 4006c000                       ...@...@

000040d0 <PORT_ARR>:
    40d0:	40049000 4004a000 4004b000 4004c000     ...@...@...@...@
    40e0:	4004d000                                ...@

000040e4 <GPIO_ARR>:
    40e4:	400ff000 400ff040 400ff080 400ff0c0     ...@@..@...@...@
    40f4:	400ff100                                ...@
